(dp0
S''
p1
I2
sS'woodi'
p2
I1
sS'foul'
p3
I4
sS'elvi'
p4
I2
sS'over-r'
p5
I9
sS'lesbian-kil'
p6
I1
sS'1939-'
p7
I1
sS'lori'
p8
I1
sS'lord'
p9
I9
sS'desensit'
p10
I1
sS'wizardri'
p11
I1
sS'digit'
p12
I3
sS'deli'
p13
I1
sS'bile'
p14
I1
sS'lumin'
p15
I1
sS'hitchcock'
p16
I3
sS'sonja'
p17
I1
sS'delv'
p18
I1
sS'awfal'
p19
I1
sS'four'
p20
I4
sS'disturb'
p21
I14
sS'prize'
p22
I2
sS'wooden'
p23
I4
sS'haawwww'
p24
I1
sS'oooo'
p25
I1
sS'vomit-pan'
p26
I1
sS'scheider'
p27
I1
sS'miller'
p28
I1
sS'pubic'
p29
I1
sS'budget'
p30
I17
sS'second'
p31
I40
sS'fece'
p32
I1
sS'gore-inv'
p33
I1
sS'dialogu'
p34
I28
sS'ruthless'
p35
I1
sS'thunder'
p36
I1
sS'insta-freez'
p37
I1
sS'roddi'
p38
I1
sS'uuuuuuugggghhhhhh'
p39
I1
sS'tuturro'
p40
I1
sS'kid-'
p41
I1
sS'specialist'
p42
I1
sS'intellectu'
p43
I8
sS'hero'
p44
I16
sS'dahl'
p45
I3
sS'old-farti'
p46
I1
sS'anti-southern'
p47
I1
sS'cula'
p48
I1
sS'here'
p49
I21
sS'herd'
p50
I1
sS'chine'
p51
I1
sS'cult'
p52
I5
sS'herv'
p53
I1
sS'dork'
p54
I3
sS"i'v"
p55
I105
sS'deterior'
p56
I2
sS'militari'
p57
I6
sS'k'
p58
I4
sS'songwrit'
p59
I1
sS"i'd"
p60
I40
sS"i'm"
p61
I117
sS'climber'
p62
I1
sS'controversi'
p63
I1
sS'golden'
p64
I2
sS'brought'
p65
I18
sS'stern'
p66
I1
sS'univ'
p67
I2
sS'scarier'
p68
I4
sS'spoke'
p69
I3
sS'music'
p70
I53
sS'unexploit'
p71
I1
sS'strike'
p72
I1
sS'until'
p73
I5
sS'nebul'
p74
I1
sS'astupid'
p75
I1
sS'"tender'
p76
I1
sS'relat'
p77
I10
sS'notic'
p78
I10
sS'hurt'
p79
I13
sS'meteorologist'
p80
I1
sS'glass'
p81
I5
sS'holm'
p82
I2
sS'holi'
p83
I5
sS'hurl'
p84
I2
sS'90'
p85
I12
sS'hole'
p86
I11
sS'biblic'
p87
I3
sS'95'
p88
I1
sS'thrown-togeth'
p89
I1
sS'believable-'
p90
I1
sS'accid'
p91
I3
sS'othewis'
p92
I1
sS'blade'
p93
I2
sS'conceptu'
p94
I1
sS'locker'
p95
I1
sS'burnett'
p96
I1
sS'rework'
p97
I1
sS'matilda'
p98
I1
sS'infus'
p99
I1
sS'charlton'
p100
I1
sS'refus'
p101
I4
sS'want'
p102
I149
sS'artilleri'
p103
I1
sS'dyke'
p104
I1
sS'hoe'
p105
I2
sS'travel'
p106
I3
sS'copious'
p107
I1
sS'classifi'
p108
I4
sS'coca-cola'
p109
I1
sS'how'
p110
I91
sS'hot'
p111
I14
sS'comediann'
p112
I1
sS'dangerfield'
p113
I1
sS'hop'
p114
I1
sS'perspect'
p115
I4
sS'potti'
p116
I1
sS'jezzzuz'
p117
I1
sS'yun'
p118
I1
sS'wrong'
p119
I34
sS'face-in-the-wat'
p120
I1
sS'beauti'
p121
I22
sS'factor-'
p122
I1
sS'"live'
p123
I1
sS'vicin'
p124
I1
sS'glow-in-the-dark'
p125
I1
sS'revolt'
p126
I2
sS'revolv'
p127
I3
sS'imposs'
p128
I4
sS'say-horr'
p129
I1
sS'wing'
p130
I3
sS'wind'
p131
I5
sS'tooooo'
p132
I1
sS'mabey'
p133
I1
sS'butcher'
p134
I6
sS'affect'
p135
I4
sS'scalia'
p136
I1
sS'wherein'
p137
I1
sS'fit'
p138
I10
sS'funni'
p139
I178
sS'beer-drink'
p140
I1
sS'fix'
p141
I3
sS'diffrent'
p142
I1
sS'inan'
p143
I4
sS'conner'
p144
I1
sS'hidden'
p145
I1
sS'easier'
p146
I1
sS'fim'
p147
I2
sS'lambert'
p148
I1
sS'slate'
p149
I1
sS'miniseri'
p150
I1
sS'glorifi'
p151
I6
sS'surgic'
p152
I1
sS'interrupt'
p153
I2
sS'sixteen'
p154
I1
sS'silver'
p155
I4
sS'arrog'
p156
I4
sS'debut'
p157
I1
sS'foregin'
p158
I1
sS'spotless'
p159
I1
sS'showcas'
p160
I3
sS'pleez'
p161
I1
sS"we'r"
p162
I6
sS'resum'
p163
I1
sS'spider'
p164
I1
sS'thelma'
p165
I1
sS'whis'
p166
I1
sS'whip'
p167
I2
sS'homicid'
p168
I1
sS'protray'
p169
I1
sS'mason'
p170
I1
sS're'
p171
I1
sS'genghi'
p172
I2
sS'adapt'
p173
I5
sS'rc'
p174
I1
sS'yourselv'
p175
I2
sS'wanna-be'
p176
I1
sS'tybalt'
p177
I1
sS'dracula'
p178
I3
sS'nightmar'
p179
I11
sS'15th-centuri'
p180
I1
sS'jennif'
p181
I15
sS'knit'
p182
I1
sS'lliam'
p183
I1
sS'christma'
p184
I5
sS'thwe'
p185
I1
sS'ate'
p186
I2
sS'vorhe'
p187
I1
sS"n'sync"
p188
I1
sS'unabl'
p189
I1
sS'confus'
p190
I26
sS'strangelov'
p191
I2
sS'rosco'
p192
I1
sS'munster'
p193
I1
sS'clariti'
p194
I1
sS'wast'
p195
I208
sS'litt'
p196
I1
sS'seinfeld'
p197
I3
sS'red-brown'
p198
I1
sS'subtleti'
p199
I1
sS'sutherland'
p200
I3
sS'diaster'
p201
I1
sS'third-rat'
p202
I2
sS'understat'
p203
I2
sS'adject'
p204
I1
sS'master'
p205
I4
sS'critter'
p206
I1
sS'bitter'
p207
I2
sS'listen'
p208
I14
sS'danish'
p209
I1
sS'bacon'
p210
I6
sS'asner'
p211
I1
sS'wisdom'
p212
I1
sS'task'
p213
I2
sS'crawl'
p214
I3
sS'technic'
p215
I2
sS'trek'
p216
I22
sS'tree'
p217
I4
sS'project'
p218
I9
sS'superscop'
p219
I1
sS'bearabl'
p220
I1
sS'trep'
p221
I1
sS'artless'
p222
I1
sS'screwup'
p223
I1
sS'acclaim'
p224
I6
sS'esta'
p225
I1
sS'corni'
p226
I18
sS'runner'
p227
I1
sS'boston'
p228
I3
sS'spectrum'
p229
I1
sS'spent'
p230
I22
sS'straightlac'
p231
I1
sS'corny'
p232
I1
sS'dozen'
p233
I5
sS'connelli'
p234
I1
sS'calber'
p235
I1
sS'that'
p236
I291
sS'unrehears'
p237
I1
sS'chaarcter'
p238
I1
sS'carpentetr'
p239
I1
sS'strobe'
p240
I1
sS'pander'
p241
I2
sS'heart--and'
p242
I1
sS'canist'
p243
I1
sS'amovi'
p244
I1
sS'object'
p245
I4
sS'swiss'
p246
I2
sS'mouth'
p247
I7
sS'letter'
p248
I1
sS'thriller'
p249
I6
sS'singer'
p250
I2
sS'unpleas'
p251
I4
sS'professor'
p252
I1
sS'camp'
p253
I8
sS'hospit'
p254
I2
sS'scream'
p255
I24
sS'came'
p256
I42
sS'marvel'
p257
I4
sS'ostentati'
p258
I1
sS'bomb'
p259
I20
sS'cheapli'
p260
I1
sS'sexist'
p261
I2
sS'sexism'
p262
I2
sS'lethal'
p263
I1
sS'hi-tech'
p264
I1
sS'heartili'
p265
I1
sS'restaur'
p266
I3
sS'bust'
p267
I2
sS'theme'
p268
I14
sS'busi'
p269
I11
sS'bliss'
p270
I1
sS'incredibley'
p271
I1
sS'rich'
p272
I6
sS'mend'
p273
I1
sS'rice'
p274
I2
sS'mena'
p275
I1
sS'plate'
p276
I1
sS'godzilla'
p277
I2
sS'pocket'
p278
I1
sS'giggl'
p279
I3
sS'transpir'
p280
I1
sS'rushmor'
p281
I1
sS'numbingly-idiot'
p282
I1
sS'sandwich'
p283
I1
sS'patch'
p284
I3
sS'sauc'
p285
I1
sS'aftermath'
p286
I1
sS'v8s'
p287
I1
sS'blew'
p288
I7
sS'disaster'
p289
I2
sS'fair'
p290
I15
sS'remem'
p291
I1
sS'result'
p292
I12
sS'respons'
p293
I4
sS'fail'
p294
I25
sS'crouch'
p295
I2
sS'hammer'
p296
I1
sS'best'
p297
I79
sS'nanni'
p298
I1
sS'geriatr'
p299
I1
sS'lotr'
p300
I1
sS'ringu'
p301
I2
sS'cubbi'
p302
I1
sS'irv'
p303
I1
sS'skimpi'
p304
I1
sS'figur'
p305
I23
sS'sere'
p306
I1
sS'humankind'
p307
I1
sS'reccomend'
p308
I2
sS'side'
p309
I5
sS'oscar-win'
p310
I1
sS'men'
p311
I23
sS'extend'
p312
I3
sS'optimist'
p313
I1
sS'extens'
p314
I2
sS'unsatisfact'
p315
I1
sS'wtf'
p316
I7
sS'wth'
p317
I3
sS'toler'
p318
I4
sS'advertis'
p319
I6
sS'roller'
p320
I3
sS'accident'
p321
I2
sS'misguid'
p322
I1
sS'piti'
p323
I7
sS'filmgoer'
p324
I1
sS'unalter'
p325
I1
sS'logic'
p326
I3
sS'countri'
p327
I12
sS'compromis'
p328
I2
sS'rehash'
p329
I4
sS'best-act'
p330
I1
sS'2nd'
p331
I1
sS'selznick'
p332
I1
sS'assum'
p333
I10
sS'fema'
p334
I1
sS'duplic'
p335
I1
sS'filmak'
p336
I1
sS'cardboard'
p337
I2
sS'thought-provok'
p338
I2
sS'.'
p339
I904
sS'muck'
p340
I4
sS'much'
p341
I79
sS'wuld'
p342
I1
sS'superhuman'
p343
I1
sS'jackass'
p344
I2
sS'pro'
p345
I1
sS'hesit'
p346
I1
sS'life'
p347
I91
sS'distast'
p348
I1
sS'recomend'
p349
I4
sS'spit'
p350
I2
sS'eastern'
p351
I1
sS'charleton'
p352
I1
sS'fast-forward'
p353
I1
sS'ani'
p354
I167
sS'kssing'
p355
I1
sS'child'
p356
I24
sS'spin'
p357
I2
sS'davi'
p358
I2
sS'chill'
p359
I3
sS'remmington'
p360
I1
sS'commerci'
p361
I10
sS'cyber-jason'
p362
I1
sS'b-horror'
p363
I1
sS'gritti'
p364
I2
sS'marriag'
p365
I2
sS'hopkin'
p366
I4
sS're-arrang'
p367
I1
sS'bin'
p368
I4
sS'gen-i'
p369
I1
sS'disprov'
p370
I1
sS'player'
p371
I8
sS'elicit'
p372
I1
sS'gen-x'
p373
I1
sS'madonna'
p374
I3
sS'pastur'
p375
I1
sS'hong'
p376
I1
sS'credit'
p377
I14
sS'puerter'
p378
I1
sS'transpar'
p379
I2
sS'doofus'
p380
I2
sS'thingi'
p381
I1
sS'split'
p382
I2
sS'costum'
p383
I9
sS'hayak'
p384
I1
sS'preachi'
p385
I4
sS'tuna'
p386
I2
sS'tune'
p387
I2
sS'bewar'
p388
I1
sS'disguist'
p389
I2
sS'bergan'
p390
I1
sS'gigolo'
p391
I2
sS'givin'
p392
I1
sS'forsaken'
p393
I1
sS'plight'
p394
I2
sS'sleepi'
p395
I5
sS'brandish'
p396
I1
sS'previous'
p397
I6
sS'alum'
p398
I1
sS'speilberg'
p399
I2
sS'han'
p400
I1
sS'loveabl'
p401
I2
sS'deterr'
p402
I1
sS'had'
p403
I91
sS'hay'
p404
I1
sS'prison'
p405
I2
sS'falter'
p406
I1
sS'har'
p407
I1
sS'has'
p408
I68
sS'hat'
p409
I2
sS'sanit'
p410
I1
sS'sacreligi'
p411
I1
sS'twinki'
p412
I1
sS'birth'
p413
I3
sS'shadow'
p414
I4
sS'measur'
p415
I2
sS'specif'
p416
I2
sS'alica'
p417
I1
sS'presious'
p418
I1
sS'goldfing'
p419
I1
sS'remind'
p420
I7
sS'mogwai'
p421
I1
sS'gwendolyn'
p422
I1
sS'bobbi'
p423
I1
sS'gangster-typ'
p424
I1
sS'tombston'
p425
I1
sS'battlefield'
p426
I8
sS'attorney'
p427
I1
sS'right'
p428
I70
sS'old'
p429
I85
sS'ole'
p430
I1
sS'crowd'
p431
I5
sS'walk-on'
p432
I1
sS'crown'
p433
I1
sS'creep'
p434
I2
sS'witti'
p435
I4
sS'cultish'
p436
I1
sS'for'
p437
I128
sS'bottom'
p438
I5
sS'fox'
p439
I2
sS'gooch'
p440
I1
sS'foe'
p441
I1
sS'uma'
p442
I1
sS'unit'
p443
I4
sS'umm'
p444
I1
sS'condit'
p445
I3
sS'sensibl'
p446
I2
sS'moviedom'
p447
I2
sS'dental'
p448
I1
sS'colleg'
p449
I8
sS'continuo'
p450
I1
sS'defton'
p451
I1
sS'lefti'
p452
I1
sS'valium'
p453
I1
sS'yorki'
p454
I1
sS'troubl'
p455
I9
sS'o'
p456
I9
sS'tinkerbel'
p457
I1
sS'emilio'
p458
I1
sS'bath'
p459
I1
sS'sod'
p460
I1
sS'dyson'
p461
I1
sS'soo'
p462
I5
sS'son'
p463
I13
sS'creativ'
p464
I17
sS'wrap'
p465
I4
sS'east'
p466
I3
sS'halli'
p467
I1
sS'"scream"'
p468
I1
sS'support'
p469
I16
sS'tame'
p470
I2
sS'avail'
p471
I1
sS'joseph'
p472
I2
sS'goddamn'
p473
I1
sS'jane'
p474
I5
sS'tele'
p475
I1
sS'pfieffer'
p476
I1
sS'crapdotcom'
p477
I1
sS'headach'
p478
I9
sS'offer'
p479
I7
sS'armi'
p480
I6
sS'floatat'
p481
I1
sS'duel'
p482
I1
sS'azz'
p483
I1
sS'actuallli'
p484
I1
sS'150'
p485
I1
sS'later'
p486
I15
sS'158'
p487
I1
sS'noriega'
p488
I1
sS'proven'
p489
I2
sS'exist'
p490
I12
sS'dealer'
p491
I3
sS'smelt'
p492
I1
sS'floor'
p493
I6
sS'"surprise"'
p494
I1
sS'actor'
p495
I128
sS'flood'
p496
I2
sS'role'
p497
I37
sS'fheit'
p498
I1
sS'sunset'
p499
I1
sS'presum'
p500
I1
sS'smell'
p501
I4
sS'roll'
p502
I8
sS'premarit'
p503
I1
sS'legitim'
p504
I2
sS'intenc'
p505
I1
sS'intend'
p506
I7
sS'devot'
p507
I1
sS'intens'
p508
I2
sS'intent'
p509
I7
sS'miranda'
p510
I1
sS'aragorn'
p511
I1
sS"'i"
p512
I1
sS'99'
p513
I1
sS'shootout'
p514
I1
sS'dunst'
p515
I3
sS'pet'
p516
I2
sS'time'
p517
I307
sS'push'
p518
I8
sS'ndice'
p519
I1
sS'chain'
p520
I4
sS'whoever'
p521
I3
sS'urinari'
p522
I1
sS'skate'
p523
I1
sS'chair'
p524
I5
sS'muppet'
p525
I1
sS'decid'
p526
I23
sS'uneven'
p527
I1
sS'religion'
p528
I5
sS'action-pack'
p529
I1
sS'pen'
p530
I1
sS'keifer'
p531
I1
sS'vey'
p532
I1
sS'decis'
p533
I2
sS'oversight'
p534
I1
sS'over-the-top'
p535
I2
sS'jerk'
p536
I4
sS'sado-slash'
p537
I1
sS'exact'
p538
I17
sS'shenanigan'
p539
I1
sS'moola'
p540
I1
sS'tear'
p541
I6
sS'teas'
p542
I3
sS'leftov'
p543
I1
sS'belushi'
p544
I3
sS'team'
p545
I9
sS'wastin'
p546
I1
sS'prevent'
p547
I4
sS'be'
p548
I333
sS'counsler'
p549
I1
sS'compens'
p550
I2
sS'sign'
p551
I12
sS'bondag'
p552
I1
sS'candlestick'
p553
I1
sS'anaconda'
p554
I2
sS'patient'
p555
I2
sS'elton'
p556
I1
sS'freaki'
p557
I4
sS'current'
p558
I6
sS'woddi'
p559
I1
sS'hustler'
p560
I1
sS'fifti'
p561
I1
sS'honour'
p562
I1
sS'juri'
p563
I1
sS'exterem'
p564
I1
sS'along'
p565
I7
sS'disservic'
p566
I1
sS'brilliant'
p567
I13
sS'cusack'
p568
I2
sS'brillianc'
p569
I3
sS'love'
p570
I114
sS'rambl'
p571
I1
sS'outerspac'
p572
I1
sS'canin'
p573
I1
sS'prefer'
p574
I8
sS'bad-no'
p575
I1
sS'fake'
p576
I19
sS'instal'
p577
I1
sS'bloodi'
p578
I3
sS'in-rout'
p579
I1
sS'wicker'
p580
I1
sS"it'll"
p581
I1
sS'by'
p582
I46
sS'angri'
p583
I8
sS'peopl'
p584
I184
sS'claus'
p585
I1
sS'visual'
p586
I11
sS'jeeper'
p587
I3
sS'honey'
p588
I3
sS'film-'
p589
I2
sS'pretend'
p590
I8
sS'pretenc'
p591
I1
sS'whatev'
p592
I22
sS'nascar'
p593
I2
sS'recycl'
p594
I2
sS'stole'
p595
I1
sS'predelict'
p596
I1
sS'chaucer'
p597
I1
sS'coleman'
p598
I2
sS'landmark'
p599
I2
sS'spot'
p600
I6
sS'mcdowel'
p601
I1
sS'laundri'
p602
I1
sS'date'
p603
I17
sS'remak'
p604
I25
sS'suck'
p605
I232
sS'data'
p606
I1
sS'brainless'
p607
I2
sS'harmon'
p608
I1
sS'stress'
p609
I2
sS'conscious'
p610
I1
sS'ss'
p611
I1
sS'sr'
p612
I1
sS'masterpeic'
p613
I1
sS'su'
p614
I1
sS'mangl'
p615
I1
sS'sh'
p616
I19
sS'truck'
p617
I2
sS'f---ing'
p618
I1
sS'se'
p619
I1
sS'drunken'
p620
I1
sS'predat'
p621
I2
sS'konk'
p622
I1
sS'horriff'
p623
I1
sS'horrifi'
p624
I4
sS'footstep'
p625
I1
sS'kong'
p626
I1
sS'tti'
p627
I1
sS'big-buck'
p628
I1
sS'elain'
p629
I3
sS'tore'
p630
I1
sS'glorifiact'
p631
I1
sS'tora'
p632
I1
sS'thumb'
p633
I7
sS'groaner'
p634
I1
sS'infint'
p635
I1
sS'jim'
p636
I26
sS'hellboy'
p637
I1
sS'machina'
p638
I1
sS'palpabl'
p639
I1
sS'937'
p640
I1
sS'this-is-crap'
p641
I1
sS'civilian'
p642
I1
sS'smarter'
p643
I3
sS'insomnia'
p644
I2
sS'nation'
p645
I9
sS'hemmorhag'
p646
I1
sS'truckload'
p647
I1
sS'revers'
p648
I2
sS'confid'
p649
I2
sS'imtatiaon'
p650
I1
sS'booorrrrinnnnnggggg'
p651
I1
sS'receipt'
p652
I1
sS'co-work'
p653
I1
sS'prostitut'
p654
I3
sS'models--stand'
p655
I1
sS'joker'
p656
I1
sS'internet'
p657
I3
sS'formula'
p658
I5
sS'cupcak'
p659
I1
sS'domest'
p660
I2
sS'million'
p661
I12
sS'envelop'
p662
I1
sS'seventi'
p663
I1
sS'vicious'
p664
I3
sS'disrespect'
p665
I7
sS'crazier'
p666
I1
sS'grandma'
p667
I1
sS'chevi'
p668
I2
sS'dunno'
p669
I1
sS'punk'
p670
I3
sS'punh'
p671
I1
sS'ultra-bor'
p672
I1
sS'neglect'
p673
I1
sS'oper'
p674
I3
sS'shrewlik'
p675
I1
sS'carlyl'
p676
I1
sS'spoken'
p677
I4
sS'onc'
p678
I63
sS'potter'
p679
I5
sS'one'
p680
I266
sS'distat'
p681
I1
sS'whpo'
p682
I1
sS'spanish'
p683
I1
sS'vote'
p684
I6
sS'u2'
p685
I1
sS'open'
p686
I16
sS'plotless'
p687
I3
sS'looong'
p688
I1
sS'wrath'
p689
I1
sS'bite'
p690
I2
sS'citi'
p691
I7
sS'2'
p692
I80
sS'slasher'
p693
I8
sS'kinkier'
p694
I1
sS'snatch'
p695
I1
sS'craven-lik'
p696
I1
sS'devito'
p697
I2
sS'antic'
p698
I1
sS'boyfriend'
p699
I8
sS':'
p700
I120
sS'iceberg'
p701
I3
sS'third'
p702
I3
sS'simple-mind'
p703
I1
sS'rival'
p704
I3
sS'non-stop'
p705
I2
sS'so-so'
p706
I1
sS'folli'
p707
I1
sS'oooohhhh'
p708
I1
sS'russia'
p709
I1
sS'sai'
p710
I1
sS'influenti'
p711
I1
sS'nicer'
p712
I1
sS'cheri'
p713
I1
sS'argument'
p714
I3
sS'sad'
p715
I28
sS'alleg'
p716
I1
sS'say'
p717
I157
sS'allen'
p718
I4
sS'turner'
p719
I3
sS'sap'
p720
I2
sS'saw'
p721
I92
sS'sat'
p722
I9
sS'babysit'
p723
I1
sS'hilfig'
p724
I1
sS'note'
p725
I9
sS'goodman'
p726
I1
sS'denomin'
p727
I3
sS'take'
p728
I51
sS'poster'
p729
I7
sS'destroy'
p730
I13
sS'scorses'
p731
I2
sS'noth'
p732
I114
sS'knew'
p733
I16
sS'abus'
p734
I5
sS'knee'
p735
I1
sS'unhistor'
p736
I1
sS'everlast'
p737
I1
sS'guiltili'
p738
I1
sS'dreamwork'
p739
I2
sS'sale'
p740
I1
sS'backdrop'
p741
I1
sS'axe'
p742
I1
sS'salt'
p743
I2
sS'usuali'
p744
I1
sS'open-mind'
p745
I1
sS'opportunist'
p746
I2
sS'merit'
p747
I7
sS'bright'
p748
I7
sS'heavy-hand'
p749
I1
sS'unfinish'
p750
I1
sS'slow'
p751
I25
sS'slop'
p752
I1
sS'zahn'
p753
I1
sS'romanian'
p754
I1
sS'activ'
p755
I1
sS'foward'
p756
I1
sS'hockey'
p757
I2
sS'robe'
p758
I1
sS'voluntari'
p759
I1
sS'clubfoot'
p760
I1
sS'drumlin'
p761
I1
sS'ambivil'
p762
I1
sS'hooper'
p763
I1
sS'requir'
p764
I5
sS'prime'
p765
I1
sS'artist'
p766
I6
sS'borrow'
p767
I2
sS'priest'
p768
I1
sS'roger'
p769
I6
sS'where'
p770
I41
sS'vision'
p771
I1
sS'goup'
p772
I1
sS'espa'
p773
I1
sS'overdramat'
p774
I1
sS'gangster'
p775
I2
sS'job-'
p776
I1
sS'diver'
p777
I1
sS'fahrenhyp'
p778
I2
sS'teeni'
p779
I4
sS'televis'
p780
I7
sS'overdon'
p781
I9
sS'freeuk'
p782
I1
sS'teacup'
p783
I1
sS'mope'
p784
I1
sS'poopi'
p785
I1
sS'caan'
p786
I1
sS'spars'
p787
I1
sS'screen'
p788
I50
sS'hunk'
p789
I1
sS'spare'
p790
I3
sS'revil'
p791
I1
sS'shortag'
p792
I1
sS'spark'
p793
I2
sS'abomin'
p794
I4
sS'beliv'
p795
I1
sS'jumbl'
p796
I2
sS'crapfest'
p797
I2
sS'madcap'
p798
I1
sS'auburn-mississippi'
p799
I1
sS's'
p800
I19
sS'yeeee'
p801
I1
sS'mani'
p802
I85
sS"can't"
p803
I50
sS'twit'
p804
I1
sS'exagger'
p805
I2
sS'anti'
p806
I1
sS'3000'
p807
I2
sS'boar'
p808
I1
sS'hercul'
p809
I1
sS'boat'
p810
I5
sS'personat'
p811
I1
sS'companionship'
p812
I1
sS'subcultur'
p813
I1
sS'stretch'
p814
I1
sS'west'
p815
I2
sS'vacuiti'
p816
I1
sS'venic'
p817
I1
sS'breath'
p818
I2
sS'roald'
p819
I3
sS'reflex'
p820
I1
sS'fig'
p821
I1
sS'gist'
p822
I1
sS'hung'
p823
I1
sS'thousand'
p824
I8
sS'resolut'
p825
I1
sS'fellini'
p826
I1
sS'abject'
p827
I1
sS"d'or"
p828
I1
sS'former'
p829
I2
sS'queasi'
p830
I1
sS'christiansen'
p831
I1
sS'scriptur'
p832
I1
sS'aperitif'
p833
I1
sS'ive'
p834
I4
sS'taser'
p835
I1
sS'convinc'
p836
I15
sS'dubious'
p837
I2
sS'blah'
p838
I8
sS'fame'
p839
I2
sS'econom'
p840
I1
sS'damon'
p841
I3
sS'breakdown'
p842
I2
sS'pornograph'
p843
I5
sS'pacino'
p844
I1
sS'genit'
p845
I1
sS'grumpi'
p846
I1
sS'hubbi'
p847
I1
sS'nothin'
p848
I1
sS'all-tim'
p849
I1
sS'back-drop'
p850
I1
sS'personali'
p851
I1
sS'summer'
p852
I9
sS'disconcert'
p853
I2
sS'rest'
p854
I24
sS'rita'
p855
I1
sS'oversimplifi'
p856
I1
sS'laughabl'
p857
I12
sS'hayley'
p858
I1
sS'indulg'
p859
I1
sS'littl'
p860
I91
sS'floor-fac'
p861
I1
sS'uncal'
p862
I1
sS'zion'
p863
I1
sS'around'
p864
I10
sS'rugrat'
p865
I2
sS'braveri'
p866
I1
sS'pos'
p867
I2
sS'dark'
p868
I32
sS'traffic'
p869
I3
sS'darn'
p870
I4
sS'world'
p871
I50
sS'dare'
p872
I2
sS'rate-it'
p873
I1
sS'60'
p874
I2
sS'stranger'
p875
I2
sS'61'
p876
I1
sS'clad'
p877
I1
sS'updat'
p878
I3
sS'claw'
p879
I3
sS'manag'
p880
I20
sS'depend'
p881
I3
sS'nasal'
p882
I1
sS'tvs'
p883
I1
sS'pushi'
p884
I1
sS'racial'
p885
I1
sS'whould'
p886
I2
sS'tote'
p887
I1
sS'tube'
p888
I1
sS'definit'
p889
I17
sS'evolv'
p890
I1
sS'exit'
p891
I1
sS'cuonfus'
p892
I1
sS'gruesom'
p893
I3
sS'911'
p894
I1
sS'refer'
p895
I6
sS'power'
p896
I20
sS'vivian'
p897
I1
sS'ration'
p898
I1
sS'leadership'
p899
I1
sS'stone'
p900
I6
sS'ace'
p901
I2
sS'frightn'
p902
I1
sS'meal'
p903
I3
sS'grabag'
p904
I1
sS'movie-go'
p905
I2
sS'neighbor'
p906
I2
sS'act'
p907
I251
sS'industri'
p908
I6
sS'mean'
p909
I61
sS'surviv'
p910
I4
sS'neg-num-'
p911
I2735
sS"might'v"
p912
I1
sS'wade'
p913
I1
sS'leblanc'
p914
I1
sS'bergen'
p915
I2
sS"o'tool"
p916
I1
sS'charli'
p917
I3
sS'missi'
p918
I1
sS'her'
p919
I66
sS'hes'
p920
I2
sS'hey'
p921
I15
sS'mediev'
p922
I2
sS'mindless'
p923
I18
sS'franchis'
p924
I12
sS'tedius'
p925
I1
sS'heh'
p926
I1
sS'bottl'
p927
I1
sS'conclud'
p928
I2
sS'bundl'
p929
I1
sS'amplifi'
p930
I2
sS'dribbl'
p931
I1
sS'mick'
p932
I1
sS'walken'
p933
I1
sS'categor'
p934
I1
sS'conclus'
p935
I6
sS'treacl'
p936
I2
sS'pull'
p937
I8
sS'tripl'
p938
I1
sS'dirti'
p939
I8
sS'rage'
p940
I1
sS'tripe'
p941
I15
sS'brain-dead'
p942
I4
sS'flirt'
p943
I1
sS'500'
p944
I2
sS'waterpistol'
p945
I1
sS'pulp'
p946
I7
sS'gone'
p947
I19
sS'ohh'
p948
I1
sS'ad'
p949
I11
sS'creat'
p950
I21
sS'ah'
p951
I3
sS'am'
p952
I27
sS'al'
p953
I4
sS'ao'
p954
I1
sS'an'
p955
I150
sS'as'
p956
I127
sS'at'
p957
I82
sS'johnni'
p958
I4
sS'ay'
p959
I1
sS'collid'
p960
I1
sS'puppi'
p961
I1
sS'abolish'
p962
I1
sS'tight'
p963
I3
sS'friggin'
p964
I6
sS'geocentr'
p965
I1
sS'alseep'
p966
I1
sS'calisthen'
p967
I1
sS'shaun'
p968
I2
sS'genuin'
p969
I4
sS'congress'
p970
I1
sS'a-'
p971
I1
sS'slant'
p972
I3
sS'lacklust'
p973
I2
sS'passerbi'
p974
I1
sS'midget'
p975
I1
sS'gayest'
p976
I1
sS'genuis'
p977
I1
sS'rostrum'
p978
I1
sS'sacchrin'
p979
I1
sS'keanu'
p980
I9
sS'mask'
p981
I6
sS'exlploit'
p982
I1
sS'groov'
p983
I2
sS'mimic'
p984
I1
sS'mass'
p985
I8
sS'adam'
p986
I28
sS'ubergeek'
p987
I1
sS'retch'
p988
I1
sS'sci'
p989
I2
sS'consider'
p990
I3
sS'schizophren'
p991
I1
sS'unansw'
p992
I6
sS'stankonian'
p993
I1
sS'tv'
p994
I33
sS'incas'
p995
I1
sS'nsna'
p996
I1
sS'tain'
p997
I1
sS'to'
p998
I360
sS'tail'
p999
I3
sS'th'
p1000
I1
sS'fitch'
p1001
I1
sS'smile'
p1002
I3
sS'norm'
p1003
I2
sS'diari'
p1004
I1
sS'furiouser"'
p1005
I1
sS'bellybutton'
p1006
I1
sS'dorki'
p1007
I1
sS'telethon'
p1008
I1
sS'candid'
p1009
I2
sS'candic'
p1010
I2
sS'offal'
p1011
I1
sS'strang'
p1012
I9
sS'strand'
p1013
I1
sS'peski'
p1014
I1
sS'althought'
p1015
I1
sS't2'
p1016
I1
sS't3'
p1017
I1
sS't1'
p1018
I1
sS'dinosaur'
p1019
I3
sS'sane'
p1020
I1
sS'small'
p1021
I13
sS'chinees'
p1022
I1
sS'wealthiest'
p1023
I1
sS'enterpris'
p1024
I2
sS'american-styl'
p1025
I1
sS'hour-'
p1026
I1
sS'past'
p1027
I16
sS'pass'
p1028
I14
sS'richard'
p1029
I10
sS'clock'
p1030
I2
sS'section'
p1031
I1
sS'delet'
p1032
I1
sS'method'
p1033
I1
sS'contrast'
p1034
I2
sS'full'
p1035
I8
sS'2bux'
p1036
I1
sS'fule'
p1037
I1
sS'wasn'
p1038
I1
sS'portrayl'
p1039
I1
sS'inher'
p1040
I1
sS'corniest'
p1041
I1
sS'legend'
p1042
I12
sS'brutal'
p1043
I8
sS'prior'
p1044
I2
sS'mean-heart'
p1045
I1
sS'social'
p1046
I5
sS'action'
p1047
I68
sS'depart'
p1048
I1
sS'vin'
p1049
I7
sS'athelet'
p1050
I1
sS'gratuit'
p1051
I8
sS'gosh'
p1052
I1
sS'career'
p1053
I26
sS'select'
p1054
I4
sS'occassion'
p1055
I1
sS'9-11'
p1056
I1
sS'teeny-tini'
p1057
I1
sS'mucus'
p1058
I1
sS'sitter'
p1059
I1
sS'morn'
p1060
I3
sS'polecat'
p1061
I1
sS'hirsch'
p1062
I1
sS'firth'
p1063
I1
sS'more'
p1064
I73
sS'teen'
p1065
I16
sS'barbarino'
p1066
I2
sS'door'
p1067
I3
sS'hundr'
p1068
I10
sS'videoclip'
p1069
I1
sS'moviehalloween'
p1070
I1
sS'chuckl'
p1071
I4
sS'chucki'
p1072
I5
sS'hotti'
p1073
I3
sS'compani'
p1074
I10
sS'doom'
p1075
I3
sS'cack'
p1076
I2
sS'underr'
p1077
I3
sS'phillip'
p1078
I1
sS'pg-rat'
p1079
I1
sS'scarlett'
p1080
I1
sS'morgan'
p1081
I3
sS'learn'
p1082
I15
sS'male'
p1083
I12
sS'challeng'
p1084
I3
sS'accept'
p1085
I12
sS'masculin'
p1086
I1
sS'gallon'
p1087
I1
sS'dress'
p1088
I8
sS'eeevil'
p1089
I1
sS'huge'
p1090
I25
sS'crapola'
p1091
I1
sS'hugh'
p1092
I1
sS'scifi'
p1093
I1
sS'child-lik'
p1094
I1
sS'simpl'
p1095
I13
sS'anticlimact'
p1096
I1
sS'plant'
p1097
I1
sS'"never'
p1098
I1
sS'brett'
p1099
I1
sS'soundtrack'
p1100
I10
sS'aplenti'
p1101
I1
sS'plane'
p1102
I7
sS'circumst'
p1103
I4
sS'rediculous-'
p1104
I1
sS'convuls'
p1105
I1
sS'rosebud'
p1106
I1
sS'imageri'
p1107
I1
sS'fourth-rat'
p1108
I1
sS'cigarett'
p1109
I1
sS'name--l'
p1110
I1
sS'llama'
p1111
I1
sS'pant'
p1112
I5
sS'poplular'
p1113
I1
sS'ikwydl'
p1114
I1
sS'fraser'
p1115
I1
sS'trade'
p1116
I4
sS'paper'
p1117
I11
sS'scott'
p1118
I2
sS'brim'
p1119
I3
sS'brie'
p1120
I1
sS'gentlemen'
p1121
I1
sS'outway'
p1122
I1
sS'scooby-doo'
p1123
I1
sS'gerald'
p1124
I1
sS'alli'
p1125
I1
sS'zippi'
p1126
I1
sS'html'
p1127
I2
sS'bummer'
p1128
I1
sS'beatle-wannab'
p1129
I1
sS'tri'
p1130
I130
sS'it-'
p1131
I3
sS'sucker'
p1132
I4
sS'rosalind'
p1133
I1
sS'ye-ha'
p1134
I1
sS'olivia'
p1135
I2
sS'recit'
p1136
I2
sS'neccessari'
p1137
I1
sS'all-'
p1138
I2
sS'nauseous'
p1139
I2
sS'hooh'
p1140
I1
sS'authent'
p1141
I3
sS'achiev'
p1142
I2
sS'horor'
p1143
I1
sS'found'
p1144
I23
sS'dimwit'
p1145
I1
sS'execr'
p1146
I1
sS'denni'
p1147
I1
sS'embarass'
p1148
I8
sS'choppi'
p1149
I1
sS'england'
p1150
I1
sS'somnelesc'
p1151
I1
sS'monoton'
p1152
I1
sS'terrifi'
p1153
I4
sS'realli'
p1154
I217
sS'clockwork'
p1155
I4
sS'99cent'
p1156
I1
sS'fastforward'
p1157
I1
sS'reduct'
p1158
I1
sS'massiv'
p1159
I3
sS'lipstick'
p1160
I1
sS'research'
p1161
I2
sS'bubbl'
p1162
I3
sS'mouseket'
p1163
I1
sS'qualifi'
p1164
I1
sS'belief'
p1165
I7
sS'barrymor'
p1166
I5
sS'believ'
p1167
I110
sS'quicki'
p1168
I1
sS'driven'
p1169
I1
sS'albatross'
p1170
I1
sS'struggl'
p1171
I2
sS'sicken'
p1172
I6
sS'misogyni'
p1173
I1
sS'w'
p1174
I6
sS'testament'
p1175
I2
sS'clump'
p1176
I1
sS'major'
p1177
I26
sS'incomprehs'
p1178
I1
sS'purport'
p1179
I2
sS'number'
p1180
I10
sS'horribl'
p1181
I146
sS'plantetari'
p1182
I1
sS'guess'
p1183
I31
sS'jew'
p1184
I3
sS'jet'
p1185
I9
sS'gothika'
p1186
I1
sS'cloying--most'
p1187
I1
sS'zealot'
p1188
I1
sS'illeg'
p1189
I4
sS'codswallop'
p1190
I1
sS'relationship'
p1191
I7
sS'schinder'
p1192
I1
sS'chomp'
p1193
I1
sS'consult'
p1194
I1
sS'rampant'
p1195
I3
sS'grace'
p1196
I10
sS'daytona'
p1197
I1
sS'aeon'
p1198
I1
sS'crook'
p1199
I2
sS'vocal'
p1200
I1
sS'walberg'
p1201
I2
sS'ishtar'
p1202
I3
sS'video'
p1203
I31
sS'hewitt'
p1204
I5
sS'comput'
p1205
I9
sS'gilligan'
p1206
I1
sS'pedestrian'
p1207
I1
sS'blond'
p1208
I4
sS'shortchang'
p1209
I1
sS'requisit'
p1210
I1
sS'mawkish'
p1211
I1
sS'sell'
p1212
I12
sS'equival'
p1213
I1
sS'prbabli'
p1214
I1
sS'pro-castro'
p1215
I1
sS'self'
p1216
I7
sS'sela'
p1217
I1
sS'also'
p1218
I44
sS'exposit'
p1219
I1
sS'pervad'
p1220
I1
sS'relief'
p1221
I2
sS'play'
p1222
I69
sS'darth'
p1223
I3
sS'cinematograpi'
p1224
I1
sS'yawn'
p1225
I2
sS'brooklyn'
p1226
I1
sS'plan'
p1227
I8
sS'wive'
p1228
I4
sS'orlando'
p1229
I1
sS'cover'
p1230
I6
sS'barrel'
p1231
I3
sS'reincarn'
p1232
I2
sS'ugh'
p1233
I8
sS'golf'
p1234
I2
sS'bringin'
p1235
I1
sS'gold'
p1236
I3
sS'ugl'
p1237
I1
sS'dicaprio'
p1238
I4
sS'vader'
p1239
I3
sS'session'
p1240
I1
sS'naomi'
p1241
I2
sS'reput'
p1242
I1
sS'fianc'
p1243
I1
sS'booooorrrrrriiiiinnnnnggggg'
p1244
I1
sS'writer'
p1245
I23
sS'deliri'
p1246
I1
sS'palistinian'
p1247
I1
sS'fastbal'
p1248
I1
sS'condon'
p1249
I1
sS'condom'
p1250
I1
sS'factor'
p1251
I8
sS"they'v"
p1252
I1
sS"they'r"
p1253
I14
sS"they'd"
p1254
I3
sS'scissorhand'
p1255
I1
sS'compass'
p1256
I2
sS'baffl'
p1257
I2
sS'damnit'
p1258
I2
sS'ambiti'
p1259
I1
sS'banner'
p1260
I1
sS'dustin'
p1261
I2
sS'wiccan'
p1262
I1
sS'j-should'
p1263
I1
sS'non-scari'
p1264
I2
sS'bird'
p1265
I1
sS'enemi'
p1266
I1
sS'weaver'
p1267
I2
sS'nowher'
p1268
I16
sS'rivet'
p1269
I1
sS'set'
p1270
I40
sS'creator'
p1271
I4
sS'overwhelm'
p1272
I1
sS'jade'
p1273
I1
sS'sex'
p1274
I36
sS'see'
p1275
I197
sS'sea'
p1276
I2
sS'led'
p1277
I3
sS'eman'
p1278
I1
sS'shower'
p1279
I4
sS'#'
p1280
I2
sS'spiritu'
p1281
I1
sS'goriest'
p1282
I1
sS"what's-her-nam"
p1283
I1
sS'propoganda'
p1284
I2
sS'nope'
p1285
I4
sS'compliment'
p1286
I1
sS'subject'
p1287
I8
sS'pirat'
p1288
I2
sS'geo-scienc'
p1289
I1
sS'joddi'
p1290
I1
sS'sceneri'
p1291
I3
sS'cryptic'
p1292
I1
sS'last'
p1293
I14
sS'thou'
p1294
I1
sS'thow'
p1295
I1
sS'natali'
p1296
I3
sS'nickelson'
p1297
I1
sS'malden'
p1298
I1
sS'"leagu'
p1299
I1
sS'lash'
p1300
I1
sS'hyperhypo'
p1301
I1
sS'whole'
p1302
I49
sS'whold'
p1303
I1
sS'load'
p1304
I11
sS'episod'
p1305
I8
sS'drunk'
p1306
I7
sS'schedul'
p1307
I2
sS'loan'
p1308
I1
sS'unrealist'
p1309
I17
sS'hollow'
p1310
I5
sS'trolog'
p1311
I1
sS'provok'
p1312
I3
sS'sing'
p1313
I18
sS'communiti'
p1314
I2
sS'belt'
p1315
I1
sS'worthless'
p1316
I14
sS'devil'
p1317
I4
sS'filth'
p1318
I4
sS'devic'
p1319
I3
sS'unorigion'
p1320
I1
sS'perpetu'
p1321
I2
sS'homosexu'
p1322
I2
sS'devis'
p1323
I1
sS'nonexist'
p1324
I1
sS'firm'
p1325
I3
sS'stoopid'
p1326
I1
sS'entertaining-'
p1327
I1
sS'versa'
p1328
I1
sS'fire'
p1329
I3
sS'infect'
p1330
I2
sS'39'
p1331
I1
sS'ja'
p1332
I1
sS'fund'
p1333
I4
sS'deport'
p1334
I1
sS'educ'
p1335
I9
sS'greas'
p1336
I4
sS'coppola'
p1337
I2
sS'errol'
p1338
I1
sS'straight'
p1339
I10
sS'histor'
p1340
I12
sS'cagey'
p1341
I1
sS'error'
p1342
I2
sS'robin'
p1343
I5
sS'real'
p1344
I74
sS'pound'
p1345
I2
sS'technolog'
p1346
I2
sS'owen'
p1347
I2
sS'invisbl'
p1348
I1
sS'dabney'
p1349
I1
sS'duckl'
p1350
I1
sS'deferen'
p1351
I1
sS'vow'
p1352
I3
sS'captiv'
p1353
I1
sS'superheor'
p1354
I1
sS'chase'
p1355
I7
sS'barney'
p1356
I1
sS'spectacular'
p1357
I5
sS'onscreen'
p1358
I1
sS'read'
p1359
I54
sS'stung'
p1360
I1
sS'co-star'
p1361
I1
sS'gentler-kind'
p1362
I1
sS'walmart'
p1363
I1
sS'rabid'
p1364
I2
sS'tobacco'
p1365
I1
sS'recent'
p1366
I10
sS'eleg'
p1367
I1
sS'kelli'
p1368
I4
sS'person'
p1369
I60
sS'expens'
p1370
I4
sS'elev'
p1371
I2
sS'4hrs'
p1372
I1
sS'nc-17'
p1373
I2
sS'above--just'
p1374
I1
sS'certaint'
p1375
I2
sS'glitz'
p1376
I1
sS'sidebar'
p1377
I1
sS'forrest'
p1378
I2
sS'eeri'
p1379
I1
sS'eager'
p1380
I2
sS'courtney'
p1381
I1
sS'action"'
p1382
I1
sS'katherin'
p1383
I1
sS'australia'
p1384
I1
sS'inconsequenti'
p1385
I1
sS'format'
p1386
I2
sS'hokey'
p1387
I5
sS'lunaci'
p1388
I1
sS'quest'
p1389
I3
sS'unsucess'
p1390
I1
sS'd'
p1391
I5
sS'consensus'
p1392
I2
sS'beckinsal'
p1393
I1
sS'stylish'
p1394
I1
sS'doolittl'
p1395
I1
sS'encount'
p1396
I2
sS'mighti'
p1397
I1
sS'acknowledg'
p1398
I1
sS'sighn'
p1399
I1
sS'b-o-r-i-n-g'
p1400
I1
sS'palm'
p1401
I1
sS'sight'
p1402
I3
sS'unquestion'
p1403
I1
sS'curious'
p1404
I3
sS'pale'
p1405
I2
sS'shall'
p1406
I1
sS'dog-gone-it'
p1407
I1
sS'recognit'
p1408
I3
sS'whodunit'
p1409
I1
sS'mummi'
p1410
I2
sS'novelti'
p1411
I1
sS'recogniz'
p1412
I1
sS'machin'
p1413
I7
sS'gremlin'
p1414
I1
sS'unedit'
p1415
I1
sS'reddest'
p1416
I1
sS'requiem'
p1417
I1
sS'grotesqu'
p1418
I4
sS'odor'
p1419
I1
sS'bh'
p1420
I1
sS'agreement'
p1421
I1
sS'umcomfort'
p1422
I1
sS'pietro'
p1423
I1
sS'bw'
p1424
I2
sS'santa'
p1425
I1
sS'bs'
p1426
I2
sS'carol'
p1427
I1
sS'tower'
p1428
I1
sS'juvenil'
p1429
I8
sS'loathsom'
p1430
I2
sS'materi'
p1431
I10
sS'revolut'
p1432
I1
sS"b'day"
p1433
I1
sS'clinton'
p1434
I4
sS'colorado'
p1435
I1
sS'irrit'
p1436
I9
sS'into'
p1437
I28
sS'likabl'
p1438
I6
sS'savag'
p1439
I3
sS'span'
p1440
I1
sS'zig'
p1441
I1
sS'kathleen'
p1442
I1
sS'gross-out'
p1443
I5
sS'custom'
p1444
I1
sS'suit'
p1445
I10
sS'junctur'
p1446
I1
sS'coyot'
p1447
I1
sS'jewish'
p1448
I4
sS'peeper'
p1449
I1
sS'butler'
p1450
I1
sS'archaic'
p1451
I1
sS'link'
p1452
I2
sS'goosebump'
p1453
I1
sS'line'
p1454
I49
sS'best-thi'
p1455
I1
sS'jacki'
p1456
I6
sS'cia'
p1457
I1
sS'cig'
p1458
I2
sS'horrorfi'
p1459
I1
sS'prelud'
p1460
I2
sS'up'
p1461
I33
sS'us'
p1462
I19
sS'ur'
p1463
I1
sS'um'
p1464
I1
sS'un'
p1465
I1
sS'chan'
p1466
I6
sS'haunt'
p1467
I5
sS'char'
p1468
I1
sS'wovi'
p1469
I1
sS'definet'
p1470
I1
sS'phantom'
p1471
I4
sS'tara'
p1472
I2
sS'dentistri'
p1473
I1
sS'under-the-top'
p1474
I1
sS'babi'
p1475
I9
sS'trait'
p1476
I2
sS'retract'
p1477
I1
sS'tedium'
p1478
I2
sS'scrub'
p1479
I1
sS'nutti'
p1480
I1
sS'hackney'
p1481
I1
sS'ago'
p1482
I17
sS'land'
p1483
I3
sS'fighter'
p1484
I2
sS'wafer'
p1485
I1
sS'inaccuraci'
p1486
I2
sS'age'
p1487
I16
sS'soooooooo'
p1488
I2
sS'chick-flick'
p1489
I3
sS'hella'
p1490
I2
sS'matine'
p1491
I2
sS'overton'
p1492
I1
sS'walker'
p1493
I1
sS'fresh'
p1494
I2
sS'rescuer'
p1495
I1
sS'hello'
p1496
I3
sS'code'
p1497
I1
sS'partial'
p1498
I1
sS'egocentr'
p1499
I1
sS'scratch'
p1500
I1
sS'weatherman'
p1501
I1
sS'broader'
p1502
I1
sS'freakin'
p1503
I5
sS'flashback'
p1504
I1
sS'unfulfil'
p1505
I1
sS'sucked-it'
p1506
I1
sS'young'
p1507
I14
sS'send'
p1508
I10
sS'cheapo'
p1509
I1
sS'cheapi'
p1510
I1
sS'sens'
p1511
I52
sS'bixbi'
p1512
I1
sS'sent'
p1513
I2
sS'boatload'
p1514
I1
sS'garden'
p1515
I2
sS'transluc'
p1516
I1
sS'disast'
p1517
I9
sS'manhatton'
p1518
I1
sS'distates'
p1519
I1
sS'wipe'
p1520
I3
sS'recip'
p1521
I1
sS'magic'
p1522
I5
sS'britney'
p1523
I2
sS'harbor'
p1524
I5
sS'eva'
p1525
I1
sS'eve'
p1526
I1
sS'race'
p1527
I14
sS'trite'
p1528
I1
sS'marri'
p1529
I4
sS'leonardo'
p1530
I2
sS'rack'
p1531
I1
sS'ignornat'
p1532
I1
sS'thespian'
p1533
I1
sS'vehicl'
p1534
I5
sS'impli'
p1535
I4
sS'natur'
p1536
I8
sS'whoopti'
p1537
I1
sS'odi'
p1538
I2
sS'hyde'
p1539
I1
sS'odo'
p1540
I1
sS'adpat'
p1541
I1
sS'odd'
p1542
I5
sS'minuet'
p1543
I1
sS'indian'
p1544
I3
sS'dissapoint'
p1545
I15
sS'ahhhhh'
p1546
I1
sS'klingon'
p1547
I1
sS'poverti'
p1548
I1
sS'lee'
p1549
I5
sS'leg'
p1550
I3
sS'punch'
p1551
I3
sS'leo'
p1552
I6
sS'present--lik'
p1553
I1
sS'avereg'
p1554
I1
sS'let'
p1555
I73
sS'fifteen'
p1556
I4
sS'great'
p1557
I121
sS'fruitcak'
p1558
I1
sS'didnt'
p1559
I14
sS'casino'
p1560
I2
sS'screech'
p1561
I3
sS'scatter'
p1562
I1
sS'insulin'
p1563
I1
sS'climact'
p1564
I1
sS'popcorn'
p1565
I4
sS'opinion'
p1566
I31
sS'dude-thi'
p1567
I1
sS'maker'
p1568
I18
sS'crosbi'
p1569
I2
sS'emot'
p1570
I17
sS'sgt'
p1571
I1
sS'dumbest'
p1572
I6
sS'zit'
p1573
I1
sS'doubl'
p1574
I5
sS'bush'
p1575
I6
sS'next'
p1576
I12
sS'process'
p1577
I5
sS'doubt'
p1578
I16
sS'capra'
p1579
I1
sS'humorless'
p1580
I1
sS'deicid'
p1581
I1
sS'pencil'
p1582
I1
sS'babe'
p1583
I2
sS'shipwreck'
p1584
I1
sS'actuali'
p1585
I1
sS'zimmer'
p1586
I1
sS'twaddl'
p1587
I1
sS'senario'
p1588
I1
sS'rubbish'
p1589
I7
sS'snob-i'
p1590
I1
sS'bodili'
p1591
I1
sS'this'
p1592
I770
sS'aperson'
p1593
I1
sS'pour'
p1594
I1
sS'thin'
p1595
I4
sS'drill'
p1596
I2
sS'coffin'
p1597
I1
sS'thie'
p1598
I1
sS'self-promot'
p1599
I1
sS'weaker'
p1600
I1
sS'envolv'
p1601
I1
sS'bent'
p1602
I1
sS'psiquiatrist'
p1603
I1
sS'hostag'
p1604
I1
sS'lock'
p1605
I3
sS'high'
p1606
I58
sS'slit'
p1607
I2
sS'bene'
p1608
I2
sS'slip'
p1609
I3
sS'blvd'
p1610
I1
sS'crimin'
p1611
I2
sS'martyr'
p1612
I1
sS'cring'
p1613
I1
sS'achill'
p1614
I1
sS'comedi'
p1615
I92
sS'"b"'
p1616
I1
sS'anakin'
p1617
I2
sS'contempt'
p1618
I1
sS'sensless'
p1619
I1
sS'oz'
p1620
I1
sS'lamb'
p1621
I2
sS'hitcher'
p1622
I1
sS'inhal'
p1623
I1
sS'hitchen'
p1624
I1
sS'hawk'
p1625
I1
sS'hawn'
p1626
I1
sS'essenti'
p1627
I4
sS'nanci'
p1628
I1
sS'classi'
p1629
I1
sS'kedwai'
p1630
I1
sS'robot'
p1631
I2
sS'or'
p1632
I61
sS'issu'
p1633
I8
sS'proposter'
p1634
I1
sS'writ'
p1635
I1
sS'allow'
p1636
I9
sS'nauceous'
p1637
I1
sS'wolverin'
p1638
I2
sS'houston'
p1639
I1
sS'mute'
p1640
I1
sS'eileen'
p1641
I1
sS'move'
p1642
I13
sS'marketing-fest'
p1643
I1
sS'perfect'
p1644
I12
sS'decay'
p1645
I1
sS'chosen'
p1646
I2
sS'hobbi'
p1647
I1
sS'mispronounc'
p1648
I1
sS'shudder'
p1649
I1
sS'decad'
p1650
I5
sS'therefor'
p1651
I7
sS'gwenyth'
p1652
I3
sS'cuss'
p1653
I4
sS'legendari'
p1654
I3
sS'python'
p1655
I4
sS'overal'
p1656
I17
sS'earn'
p1657
I6
sS'staar'
p1658
I1
sS'snake'
p1659
I7
sS'kiss'
p1660
I8
sS'pee-we'
p1661
I1
sS'protrub'
p1662
I1
sS'cage'
p1663
I6
sS'realize'
p1664
I3
sS'immaut'
p1665
I1
sS'betti'
p1666
I3
sS'anyth'
p1667
I89
sS'eben'
p1668
I1
sS'truth'
p1669
I8
sS'beneath'
p1670
I4
sS'societi'
p1671
I6
sS'fish-slap'
p1672
I1
sS'jagger'
p1673
I1
sS'consum'
p1674
I1
sS'static'
p1675
I1
sS'thirteen'
p1676
I1
sS'squiggl'
p1677
I1
sS'banal'
p1678
I2
sS'bay'
p1679
I3
sS'wander'
p1680
I1
sS'matrix'
p1681
I10
sS"'"
p1682
I5
sS'bag'
p1683
I11
sS'bad'
p1684
I327
sS'anti-whit'
p1685
I2
sS'trulli'
p1686
I1
sS'freack'
p1687
I1
sS'matric'
p1688
I1
sS'troop'
p1689
I2
sS'shut'
p1690
I8
sS'shakespearian'
p1691
I1
sS'ben-hur'
p1692
I1
sS'templ'
p1693
I1
sS'shue'
p1694
I2
sS'tempt'
p1695
I3
sS'shun'
p1696
I1
sS'embarrass'
p1697
I16
sS'pothead'
p1698
I2
sS'greedi'
p1699
I2
sS'log'
p1700
I1
sS'tourchur'
p1701
I1
sS'could'
p1702
I70
sS'david'
p1703
I8
sS'scari'
p1704
I101
sS'length'
p1705
I3
sS'enforc'
p1706
I2
sS're-enactor'
p1707
I1
sS'outsid'
p1708
I5
sS'scare'
p1709
I31
sS'blown'
p1710
I4
sS'scene'
p1711
I128
sS'jesus'
p1712
I12
sS'pedophyl'
p1713
I1
sS'owner'
p1714
I3
sS'prank'
p1715
I1
sS'vixen'
p1716
I1
sS'los'
p1717
I1
sS'dimbulb'
p1718
I1
sS'ludicros'
p1719
I1
sS'termin'
p1720
I5
sS'norton'
p1721
I1
sS'unbear'
p1722
I1
sS'painful'
p1723
I3
sS'stomach'
p1724
I6
sS'accompani'
p1725
I1
sS'aryan'
p1726
I1
sS'chong'
p1727
I1
sS'steel'
p1728
I1
sS'wet'
p1729
I3
sS'bother'
p1730
I24
sS'denju'
p1731
I1
sS'gkass'
p1732
I1
sS'psycholog'
p1733
I2
sS'reckogn'
p1734
I1
sS'torrent'
p1735
I1
sS'steer'
p1736
I2
sS'lamebrain'
p1737
I1
sS'terribl'
p1738
I176
sS'viewer'
p1739
I21
sS'partnership'
p1740
I1
sS'outhous'
p1741
I1
sS'element'
p1742
I5
sS'fluffi'
p1743
I2
sS'biik'
p1744
I1
sS'lili'
p1745
I2
sS'accuraci'
p1746
I2
sS'schwartzaneggar'
p1747
I1
sS'jersey'
p1748
I1
sS'linda'
p1749
I1
sS'probli'
p1750
I1
sS'latino'
p1751
I1
sS'soap'
p1752
I2
sS'toughest'
p1753
I1
sS'reservior'
p1754
I1
sS'altman'
p1755
I2
sS'bowlingfortruth'
p1756
I1
sS'lunch"'
p1757
I1
sS'half-wit'
p1758
I1
sS'placement'
p1759
I2
sS'disastor'
p1760
I1
sS'face'
p1761
I29
sS"you'll"
p1762
I14
sS'oldman'
p1763
I3
sS'bret'
p1764
I2
sS'fact'
p1765
I61
sS'nutrit'
p1766
I1
sS'bring'
p1767
I21
sS'lloyd'
p1768
I1
sS'bedroom'
p1769
I1
sS'rough'
p1770
I2
sS'trivial'
p1771
I1
sS'noir'
p1772
I2
sS'nois'
p1773
I2
sS'jay'
p1774
I2
sS'jaw'
p1775
I5
sS'movi'
p1776
I1488
sS'jar'
p1777
I3
sS'should'
p1778
I47
sS'gestur'
p1779
I1
sS'score'
p1780
I11
sS'tape'
p1781
I12
sS'intrigu'
p1782
I4
sS'flinch'
p1783
I1
sS'hope'
p1784
I46
sS'meant'
p1785
I6
sS'insight'
p1786
I2
sS'testement'
p1787
I1
sS'satisfact'
p1788
I1
sS'familiar'
p1789
I4
sS'pearl'
p1790
I7
sS'passeng'
p1791
I1
sS'horni'
p1792
I1
sS'lucki'
p1793
I2
sS'antagonist'
p1794
I4
sS'hammi'
p1795
I1
sS'smash'
p1796
I1
sS'centerist'
p1797
I1
sS'dumbsh'
p1798
I1
sS'h'
p1799
I6
sS'rapper'
p1800
I2
sS'glasgow'
p1801
I1
sS'reid'
p1802
I2
sS'stuff'
p1803
I36
sS'whisperer"'
p1804
I1
sS'ohio'
p1805
I1
sS'exhagger'
p1806
I1
sS'withstand'
p1807
I1
sS'btw'
p1808
I1
sS'unimport'
p1809
I1
sS'need--such'
p1810
I1
sS'frame'
p1811
I1
sS'armegeddon'
p1812
I2
sS'10-year-old'
p1813
I2
sS'repris'
p1814
I1
sS'superhero'
p1815
I2
sS'pseudo-intelligentsia'
p1816
I1
sS'nuclear'
p1817
I2
sS'partisan'
p1818
I1
sS'misus'
p1819
I1
sS'destini'
p1820
I1
sS'borscht'
p1821
I1
sS'harsher'
p1822
I1
sS'email'
p1823
I1
sS'axelrod2003'
p1824
I1
sS'dislik'
p1825
I6
sS'midichlorian'
p1826
I1
sS'undoubt'
p1827
I1
sS'unwitti'
p1828
I1
sS'heartwarm'
p1829
I1
sS'bridget'
p1830
I1
sS'waaaaaayyyyy'
p1831
I1
sS'drug'
p1832
I13
sS'jodi'
p1833
I4
sS'arrrgh'
p1834
I1
sS'rami'
p1835
I1
sS'll'
p1836
I1
sS'ck'
p1837
I1
sS'gorgeous'
p1838
I1
sS'extent'
p1839
I3
sS'weakmind'
p1840
I1
sS'cg'
p1841
I1
sS'incest'
p1842
I1
sS'carbon'
p1843
I2
sS'cr'
p1844
I2
sS'uck'
p1845
I1
sS'beastmast'
p1846
I1
sS"would'nt"
p1847
I1
sS'gigalo'
p1848
I1
sS'obstacl'
p1849
I2
sS'triniti'
p1850
I2
sS'insuffici'
p1851
I1
sS'lu'
p1852
I1
sS'film--lik'
p1853
I1
sS'feather'
p1854
I3
sS'immedi'
p1855
I2
sS'>'
p1856
I1
sS'sheepish'
p1857
I1
sS'planner'
p1858
I2
sS'togeth'
p1859
I28
sS'shockingly-inappropir'
p1860
I2
sS'ounc'
p1861
I1
sS'bathtub'
p1862
I5
sS'maul'
p1863
I2
sS'sith'
p1864
I1
sS'sleazy-look'
p1865
I1
sS've'
p1866
I1
sS'ripe'
p1867
I1
sS'salma'
p1868
I2
sS'site'
p1869
I6
sS'pitt'
p1870
I4
sS'lust'
p1871
I1
sS'vs'
p1872
I7
sS'mockingbird'
p1873
I1
sS'vu'
p1874
I1
sS'raison'
p1875
I1
sS'ransom'
p1876
I1
sS'tattoo'
p1877
I2
sS'denial'
p1878
I4
sS'mutat'
p1879
I3
sS'tupac'
p1880
I4
sS'matthew'
p1881
I2
sS'pauli'
p1882
I1
sS'competit'
p1883
I1
sS'balm'
p1884
I1
sS'ball'
p1885
I4
sS'raymond'
p1886
I1
sS'dusk'
p1887
I2
sS'bale'
p1888
I2
sS'drink'
p1889
I3
sS'upon'
p1890
I1
sS'coffe'
p1891
I1
sS'iago'
p1892
I1
sS'sodim'
p1893
I1
sS'broccoli'
p1894
I1
sS'expand'
p1895
I1
sS'off'
p1896
I27
sS'forty-eight'
p1897
I1
sS'devalu'
p1898
I1
sS'exampl'
p1899
I23
sS'command'
p1900
I1
sS'350'
p1901
I1
sS'depict'
p1902
I9
sS'courtroom'
p1903
I1
sS'lest'
p1904
I2
sS'pie-'
p1905
I1
sS'lession'
p1906
I1
sS'paus'
p1907
I1
sS'less'
p1908
I7
sS'humor-'
p1909
I1
sS'waterboy'
p1910
I2
sS'paul'
p1911
I1
sS'maggoo'
p1912
I1
sS'pie3'
p1913
I1
sS'broomstick'
p1914
I1
sS'web'
p1915
I2
sS'generous'
p1916
I2
sS'wee'
p1917
I2
sS'wed'
p1918
I2
sS'pompous'
p1919
I2
sS'sucksbigmonkeynut'
p1920
I1
sS'ectoplasm'
p1921
I1
sS'wes'
p1922
I2
sS'arrest'
p1923
I4
sS'crack'
p1924
I6
sS'compet'
p1925
I5
sS'vain'
p1926
I1
sS'billionair'
p1927
I1
sS"could'nt"
p1928
I1
sS'piec'
p1929
I106
sS'smithsonian'
p1930
I2
sS'cruz'
p1931
I2
sS'five'
p1932
I5
sS'desi'
p1933
I1
sS'tick'
p1934
I1
sS'resid'
p1935
I1
sS'corpor'
p1936
I3
sS'farrelli'
p1937
I1
sS'crise'
p1938
I1
sS'imprison'
p1939
I2
sS'galliant'
p1940
I1
sS'bigotri'
p1941
I1
sS'lamest'
p1942
I4
sS'e'
p1943
I4
sS'incens'
p1944
I1
sS'captur'
p1945
I8
sS'bleedin'
p1946
I1
sS'intoler'
p1947
I3
sS'big-budget'
p1948
I1
sS'elitist'
p1949
I1
sS'whqat'
p1950
I1
sS'thier'
p1951
I6
sS'transport'
p1952
I1
sS'henchman'
p1953
I1
sS'feder'
p1954
I2
sS'disbelief'
p1955
I2
sS'avoid'
p1956
I44
sS'blurri'
p1957
I1
sS'occasionally-amus'
p1958
I1
sS'passion'
p1959
I11
sS'kiddi'
p1960
I3
sS'uhhhh'
p1961
I1
sS'saltzman'
p1962
I1
sS'sideburn'
p1963
I1
sS'naff'
p1964
I1
sS'gandalf'
p1965
I1
sS'stage'
p1966
I2
sS'sister'
p1967
I2
sS'documentari'
p1968
I13
sS'favor--stay'
p1969
I1
sS'rustun'
p1970
I1
sS'clooney'
p1971
I7
sS'part-tim'
p1972
I1
sS'polak'
p1973
I1
sS'stultifi'
p1974
I2
sS'playth'
p1975
I1
sS'mere'
p1976
I5
sS'merg'
p1977
I1
sS'sander'
p1978
I1
sS'assumpt'
p1979
I1
sS'ditsi'
p1980
I1
sS'restraunt'
p1981
I1
sS'bump'
p1982
I3
sS'epitimi'
p1983
I1
sS'function'
p1984
I1
sS'tina'
p1985
I1
sS'innoc'
p1986
I2
sS'manupul'
p1987
I1
sS'gaynor'
p1988
I1
sS'grate'
p1989
I3
sS'rectum'
p1990
I1
sS'apollo'
p1991
I1
sS'count'
p1992
I5
sS"ko'd"
p1993
I1
sS'triumphant'
p1994
I1
sS'tini'
p1995
I4
sS'monument'
p1996
I2
sS'otherwis'
p1997
I25
sS'problem'
p1998
I18
sS'krueger'
p1999
I2
sS'cordial'
p2000
I1
sS'irish'
p2001
I3
sS'star-stud'
p2002
I1
sS'm-o-v-i-'
p2003
I1
sS'ing'
p2004
I1
sS'retrospect'
p2005
I1
sS'nonetheless'
p2006
I1
sS'blaber'
p2007
I1
sS'cliffhang'
p2008
I1
sS'varieti'
p2009
I1
sS'behold'
p2010
I1
sS'over-act'
p2011
I1
sS'repeat'
p2012
I6
sS"69'ing"
p2013
I1
sS'straddl'
p2014
I1
sS'veil'
p2015
I2
sS'vein'
p2016
I2
sS'ghost'
p2017
I1
sS'rule'
p2018
I10
sS'lestat'
p2019
I3
sS'defend'
p2020
I1
sS'sincer'
p2021
I3
sS'buoy'
p2022
I1
sS'mansion'
p2023
I1
sS'porno'
p2024
I3
sS'spew'
p2025
I4
sS'bludgeon'
p2026
I2
sS'edward'
p2027
I2
sS'modern-day'
p2028
I1
sS'stinki'
p2029
I3
sS'stinko'
p2030
I1
sS'worth'
p2031
I52
sS'lack'
p2032
I31
sS'ugli'
p2033
I12
sS'simmon'
p2034
I1
sS'distort'
p2035
I3
sS'manic'
p2036
I2
sS'"documentaries"'
p2037
I1
sS'jacob'
p2038
I1
sS"isn't"
p2039
I66
sS"we'll"
p2040
I3
sS'film-mak'
p2041
I2
sS'poppi'
p2042
I1
sS'samurai'
p2043
I1
sS'quasi-rang'
p2044
I1
sS'math'
p2045
I3
sS'triumph'
p2046
I1
sS'scurril'
p2047
I1
sS'cher'
p2048
I1
sS'speci'
p2049
I1
sS'preacher'
p2050
I1
sS'hors'
p2051
I6
sS'blasphemi'
p2052
I4
sS'sorriest'
p2053
I2
sS'screenit'
p2054
I1
sS'heartstop'
p2055
I1
sS'low-brow'
p2056
I1
sS'amus'
p2057
I16
sS'frank'
p2058
I11
sS'kutcher'
p2059
I2
sS'told'
p2060
I15
sS'neeson'
p2061
I3
sS'pluto'
p2062
I2
sS'pleasur'
p2063
I1
sS'daughter'
p2064
I11
sS'corleon'
p2065
I1
sS'bigtim'
p2066
I1
sS'adopt'
p2067
I1
sS'cash--unless'
p2068
I1
sS'smoke'
p2069
I7
sS'anarchist'
p2070
I1
sS'sponser'
p2071
I1
sS'bro'
p2072
I2
sS'invas'
p2073
I1
sS'attitud'
p2074
I7
sS'hindsight'
p2075
I1
sS'spooki'
p2076
I2
sS'total'
p2077
I87
sS'bra'
p2078
I1
sS'plot'
p2079
I204
sS'ploy'
p2080
I3
sS'insult'
p2081
I31
sS'plod'
p2082
I1
sS'foster'
p2083
I5
sS'byne'
p2084
I1
sS'indiana'
p2085
I3
sS'theatr'
p2086
I22
sS'knole'
p2087
I1
sS'unfortunat'
p2088
I2
sS'dicapprio'
p2089
I1
sS'haha'
p2090
I1
sS'award'
p2091
I9
sS'mathew'
p2092
I1
sS'overrun'
p2093
I1
sS'1991'
p2094
I1
sS'word'
p2095
I56
sS'insignific'
p2096
I1
sS'1996'
p2097
I2
sS'1999'
p2098
I1
sS'1998'
p2099
I1
sS'work'
p2100
I68
sS'pierc'
p2101
I5
sS'tng'
p2102
I1
sS'wors'
p2103
I68
sS'era'
p2104
I5
sS'jamal'
p2105
I1
sS'sugarco'
p2106
I1
sS'looooong'
p2107
I1
sS'ricahard'
p2108
I1
sS'repos'
p2109
I2
sS'better-i'
p2110
I1
sS'indic'
p2111
I2
sS'impair'
p2112
I1
sS'woman'
p2113
I30
sS'solem'
p2114
I1
sS'gigant'
p2115
I1
sS'"doppelganger-th'
p2116
I1
sS'ordinari'
p2117
I2
sS'egyptian'
p2118
I1
sS're-air'
p2119
I1
sS'shakin'
p2120
I1
sS'sever'
p2121
I20
sS'moron'
p2122
I20
sS'disappoint'
p2123
I61
sS'beach'
p2124
I4
sS'lal'
p2125
I1
sS'mako'
p2126
I1
sS'fever'
p2127
I1
sS'recogn'
p2128
I2
sS'lad'
p2129
I1
sS'chines'
p2130
I3
sS'after'
p2131
I46
sS'lay'
p2132
I3
sS'law'
p2133
I8
sS'lap'
p2134
I1
sS'averag'
p2135
I3
sS'porpous'
p2136
I1
sS'domin'
p2137
I4
sS'schneider'
p2138
I1
sS'psychologist'
p2139
I1
sS'detent'
p2140
I1
sS'greek'
p2141
I1
sS'green'
p2142
I12
sS'waitress'
p2143
I1
sS'worst'
p2144
I266
sS'order'
p2145
I8
sS'dirtiest'
p2146
I1
sS'funfest'
p2147
I1
sS'us-america'
p2148
I1
sS'typewrit'
p2149
I1
sS'incid'
p2150
I3
sS'japan'
p2151
I2
sS'shean'
p2152
I1
sS'premisci'
p2153
I1
sS'offic'
p2154
I10
sS'segway'
p2155
I1
sS'then'
p2156
I63
sS'them'
p2157
I40
sS'dirk'
p2158
I1
sS'thee'
p2159
I1
sS'safe'
p2160
I1
sS'break'
p2161
I21
sS'band'
p2162
I2
sS'bang'
p2163
I3
sS'tbwp'
p2164
I1
sS'bana'
p2165
I1
sS'they'
p2166
I156
sS'lifelong'
p2167
I1
sS'ther'
p2168
I1
sS'bank'
p2169
I4
sS'bread'
p2170
I1
sS'dehuman'
p2171
I1
sS'terrribl'
p2172
I1
sS'l'
p2173
I11
sS'no-brain'
p2174
I2
sS'rocki'
p2175
I3
sS'thruout'
p2176
I1
sS'tootsi'
p2177
I1
sS'slaveri'
p2178
I3
sS'moviego'
p2179
I2
sS'jobeth'
p2180
I1
sS'shatner'
p2181
I2
sS'sled'
p2182
I1
sS'webber'
p2183
I1
sS'roxi'
p2184
I1
sS'snorefest'
p2185
I1
sS'ommit'
p2186
I1
sS'jeesus'
p2187
I1
sS'wga'
p2188
I1
sS'palat'
p2189
I1
sS'goebbel'
p2190
I1
sS'diesel'
p2191
I6
sS'hoofer'
p2192
I1
sS'monro'
p2193
I1
sS'forth'
p2194
I3
sS'forti'
p2195
I1
sS'standard'
p2196
I11
sS'nth'
p2197
I1
sS'estevez'
p2198
I1
sS'flair--not'
p2199
I1
sS'lousi'
p2200
I8
sS'maniac'
p2201
I4
sS'angl'
p2202
I6
sS'angi'
p2203
I1
sS'in-your-fac'
p2204
I1
sS'renew'
p2205
I1
sS'dogvillian'
p2206
I1
sS'subtl'
p2207
I4
sS'caprici'
p2208
I1
sS'teh'
p2209
I1
sS'bonham-cart'
p2210
I1
sS'independ'
p2211
I4
sS'comic'
p2212
I25
sS'nomin'
p2213
I1
sS'dogg'
p2214
I2
sS'meandur'
p2215
I1
sS"he'll"
p2216
I1
sS'dumbass'
p2217
I1
sS'rater'
p2218
I1
sS'john'
p2219
I35
sS'sergeant'
p2220
I2
sS'built-in'
p2221
I1
sS'albert'
p2222
I2
sS'schnieder'
p2223
I1
sS"13'th"
p2224
I1
sS'leota'
p2225
I1
sS'happili'
p2226
I2
sS'toronto'
p2227
I1
sS'target'
p2228
I3
sS'kung-fu'
p2229
I1
sS'provid'
p2230
I4
sS'hike'
p2231
I1
sS'bandera'
p2232
I4
sS'spaceship'
p2233
I2
sS'merci'
p2234
I2
sS'-----todd'
p2235
I2
sS'guilt'
p2236
I2
sS'iron'
p2237
I7
sS'minut'
p2238
I90
sS'priceless'
p2239
I1
sS'minus'
p2240
I4
sS'salvag'
p2241
I3
sS'pessimist'
p2242
I1
sS'manner'
p2243
I4
sS'bleeech'
p2244
I1
sS'subsid'
p2245
I1
sS'nitro'
p2246
I1
sS'bizzar'
p2247
I1
sS'ponder'
p2248
I3
sS'strength'
p2249
I1
sS'realm'
p2250
I2
sS'laden'
p2251
I1
sS'latter'
p2252
I1
sS'casual'
p2253
I1
sS'transmit'
p2254
I1
sS'spealberg'
p2255
I1
sS'bruci'
p2256
I1
sS'bruce'
p2257
I8
sS'what'
p2258
I169
sS'unsophist'
p2259
I1
sS'volleybal'
p2260
I1
sS'phase'
p2261
I1
sS'grave'
p2262
I7
sS'excus'
p2263
I22
sS'hanna'
p2264
I1
sS'alumni'
p2265
I1
sS'pa-thet-'
p2266
I1
sS'sum'
p2267
I8
sS'mock'
p2268
I1
sS'supstit'
p2269
I1
sS'bimbo'
p2270
I4
sS'philand'
p2271
I1
sS'involv'
p2272
I22
sS'timmmmee'
p2273
I1
sS'hrs'
p2274
I1
sS'glasnost'
p2275
I1
sS'predecessor'
p2276
I2
sS'do'
p2277
I109
sS'exorcist"'
p2278
I1
sS'nasti'
p2279
I9
sS'de'
p2280
I2
sS'dr'
p2281
I10
sS'gearg'
p2282
I1
sS'diabet'
p2283
I1
sS'ahhhhhhh'
p2284
I1
sS'gaul'
p2285
I1
sS'steak'
p2286
I1
sS'steal'
p2287
I1
sS'steam'
p2288
I3
sS'pocahonta'
p2289
I1
sS'misdirect'
p2290
I1
sS'assualt'
p2291
I1
sS'scourg'
p2292
I2
sS'themselv'
p2293
I16
sS'sewag'
p2294
I1
sS'horrendouz'
p2295
I1
sS'awar'
p2296
I3
sS'away'
p2297
I50
sS'gentleman'
p2298
I1
sS'pastey'
p2299
I1
sS'hillbilli'
p2300
I1
sS'atroc'
p2301
I5
sS'drawn'
p2302
I8
sS'reggi'
p2303
I1
sS'michell'
p2304
I2
sS'2-hour'
p2305
I1
sS'inton'
p2306
I1
sS'we'
p2307
I48
sS'wb'
p2308
I1
sS'uninspir'
p2309
I8
sS'theresa'
p2310
I1
sS'ws'
p2311
I1
sS'unfold'
p2312
I1
sS'films-'
p2313
I1
sS'oomph'
p2314
I1
sS'bras'
p2315
I1
sS'cop'
p2316
I4
sS'fantasyland'
p2317
I1
sS'easi'
p2318
I8
sS'cow'
p2319
I5
sS'brat'
p2320
I5
sS'excrement'
p2321
I4
sS'ill'
p2322
I9
sS'ilm'
p2323
I1
sS'brag'
p2324
I1
sS'extraordinarili'
p2325
I1
sS'brad'
p2326
I3
sS'com'
p2327
I6
sS'bran'
p2328
I1
sS'tough'
p2329
I4
sS'spear'
p2330
I1
sS'toni'
p2331
I2
sS'excess'
p2332
I3
sS'guis'
p2333
I1
sS'believethes'
p2334
I1
sS'guin'
p2335
I1
sS'men-folk'
p2336
I1
sS'paradis'
p2337
I1
sS'speak'
p2338
I9
sS'degener'
p2339
I2
sS'convolut'
p2340
I3
sS'plantat'
p2341
I1
sS'dumb-ass'
p2342
I1
sS'charisma'
p2343
I1
sS'petti'
p2344
I3
sS'japane'
p2345
I1
sS'baum'
p2346
I1
sS'endur'
p2347
I1
sS'bluetar'
p2348
I1
sS'sinis'
p2349
I1
sS'fest'
p2350
I4
sS'gnr'
p2351
I1
sS'davison'
p2352
I1
sS'ident'
p2353
I2
sS'properti'
p2354
I1
sS'air'
p2355
I10
sS'aim'
p2356
I3
sS'ehhhhh'
p2357
I1
sS'micheal'
p2358
I2
sS'thrash'
p2359
I2
sS'aid'
p2360
I1
sS'vagu'
p2361
I2
sS'aia'
p2362
I1
sS'succes'
p2363
I1
sS'stink'
p2364
I21
sS'dizzi'
p2365
I3
sS'disect'
p2366
I1
sS'audrey'
p2367
I1
sS'uplift'
p2368
I3
sS"o'donnel"
p2369
I1
sS'anti-semit'
p2370
I3
sS'deliberations-'
p2371
I1
sS'perform'
p2372
I47
sS'descend'
p2373
I1
sS'jerri'
p2374
I8
sS'hank'
p2375
I11
sS'raid'
p2376
I1
sS'fuss'
p2377
I2
sS'evid'
p2378
I4
sS'saddam'
p2379
I1
sS'quentin'
p2380
I4
sS'hang'
p2381
I6
sS'evil'
p2382
I15
sS'hand'
p2383
I14
sS'pseudo-art'
p2384
I1
sS'norwegian'
p2385
I1
sS'rais'
p2386
I3
sS'whatever-it-wa'
p2387
I1
sS'welldon'
p2388
I1
sS'campi'
p2389
I4
sS'kept'
p2390
I17
sS'1979'
p2391
I1
sS'1977'
p2392
I3
sS'1600'
p2393
I1
sS'1975'
p2394
I1
sS'1974'
p2395
I1
sS'thr'
p2396
I2
sS'epp'
p2397
I2
sS'1970'
p2398
I1
sS'tho'
p2399
I1
sS'contact'
p2400
I4
sS'thi'
p2401
I1
sS'the'
p2402
I1279
sS'tha'
p2403
I1
sS"she'll"
p2404
I1
sS'reposo'
p2405
I1
sS'photo'
p2406
I1
sS'farther'
p2407
I1
sS'victim'
p2408
I5
sS'pac-man'
p2409
I1
sS'josh'
p2410
I4
sS'shout'
p2411
I2
sS'spread'
p2412
I6
sS'board'
p2413
I5
sS'yech'
p2414
I1
sS'zillion'
p2415
I1
sS'borefest'
p2416
I2
sS'mayb'
p2417
I48
sS'leatherfac'
p2418
I1
sS'retread'
p2419
I1
sS'arab'
p2420
I2
sS'leagu'
p2421
I1
sS'picasso'
p2422
I1
sS'inadmiss'
p2423
I1
sS'hairless'
p2424
I1
sS'riddl'
p2425
I2
sS'cooler'
p2426
I1
sS'sorvino'
p2427
I1
sS'night'
p2428
I31
sS'webb'
p2429
I1
sS'"sack'
p2430
I1
sS'manual'
p2431
I1
sS'born'
p2432
I4
sS'neva'
p2433
I1
sS'bore'
p2434
I264
sS'orchid'
p2435
I1
sS'humor'
p2436
I45
sS'/'
p2437
I57
sS'existenti'
p2438
I2
sS'"huh'
p2439
I1
sS'overcom'
p2440
I1
sS'wrong--thi'
p2441
I1
sS'peel'
p2442
I1
sS'tissue-thin'
p2443
I1
sS'pose'
p2444
I2
sS'plz'
p2445
I2
sS'thge'
p2446
I1
sS'jackhamm'
p2447
I1
sS'stereo'
p2448
I2
sS'post'
p2449
I5
sS'sensationalist'
p2450
I1
sS'peev'
p2451
I1
sS'whomev'
p2452
I2
sS'diner'
p2453
I1
sS'literatur'
p2454
I3
sS'miracul'
p2455
I1
sS'dsiappoint'
p2456
I1
sS'capper'
p2457
I1
sS'bounc'
p2458
I1
sS'float'
p2459
I3
sS'profession'
p2460
I4
sS'bound'
p2461
I2
sS'verbiag'
p2462
I1
sS'lewi'
p2463
I1
sS'opportun'
p2464
I2
sS'lewd'
p2465
I2
sS'creek'
p2466
I2
sS'wan'
p2467
I1
sS'repart'
p2468
I1
sS'quirki'
p2469
I2
sS'overblown'
p2470
I2
sS'fight'
p2471
I34
sS'way'
p2472
I154
sS'wax'
p2473
I2
sS'was'
p2474
I422
sS'war'
p2475
I46
sS'lowest'
p2476
I6
sS'morphus'
p2477
I1
sS'somehow'
p2478
I4
sS'taken'
p2479
I9
sS'voorh'
p2480
I1
sS'maxin'
p2481
I1
sS'cheech'
p2482
I1
sS'reset'
p2483
I1
sS'absent'
p2484
I3
sS'mtv'
p2485
I5
sS'maximum'
p2486
I1
sS'anem'
p2487
I1
sS'crystal'
p2488
I3
sS'inaccur'
p2489
I6
sS'retir'
p2490
I4
sS'reattach'
p2491
I1
sS'alongsid'
p2492
I1
sS'request'
p2493
I1
sS'abstract'
p2494
I2
sS'stallon'
p2495
I4
sS'nuditi'
p2496
I12
sS'mole'
p2497
I1
sS'poodl'
p2498
I1
sS'uncorrupt'
p2499
I1
sS'stake'
p2500
I1
sS'jone'
p2501
I6
sS'"when'
p2502
I1
sS'test'
p2503
I3
sS'frolic'
p2504
I1
sS'realiti'
p2505
I21
sS'minldess'
p2506
I1
sS'macabr'
p2507
I1
sS'flay'
p2508
I1
sS'gobbl'
p2509
I2
sS'outdat'
p2510
I2
sS'pefect'
p2511
I1
sS'loyal'
p2512
I2
sS'cheater'
p2513
I1
sS'concept'
p2514
I17
sS'global'
p2515
I1
sS'supplement'
p2516
I1
sS're-enforc'
p2517
I1
sS'middl'
p2518
I10
sS'zone'
p2519
I1
sS'flash'
p2520
I5
sS'rhythm'
p2521
I1
sS'terror'
p2522
I10
sS'brown'
p2523
I1
sS'pro-american'
p2524
I1
sS'kitten'
p2525
I1
sS'blast'
p2526
I1
sS'goofiest'
p2527
I1
sS'kelter'
p2528
I1
sS'cunningham'
p2529
I1
sS'aaaaarrrrrggggghhhhh'
p2530
I1
sS'reconcil'
p2531
I1
sS'gun'
p2532
I14
sS'gum'
p2533
I2
sS'gus'
p2534
I1
sS'p'
p2535
I7
sS'soooo'
p2536
I7
sS'gut'
p2537
I7
sS'guy'
p2538
I95
sS'upper'
p2539
I2
sS'hte'
p2540
I1
sS'brave'
p2541
I2
sS'regret'
p2542
I7
sS'stupefi'
p2543
I1
sS'bravo'
p2544
I1
sS'alfi'
p2545
I1
sS'everytim'
p2546
I3
sS'cost'
p2547
I26
sS'alfr'
p2548
I2
sS'ripoff'
p2549
I3
sS'rapist'
p2550
I2
sS'appear'
p2551
I14
sS'uniform'
p2552
I3
sS'bigbabi'
p2553
I2
sS'goldblum'
p2554
I2
sS'appeal'
p2555
I17
sS'devil-whor'
p2556
I1
sS'gawd'
p2557
I2
sS'unimaginit'
p2558
I1
sS'widow'
p2559
I1
sS'satisfi'
p2560
I2
sS'auberjonio'
p2561
I1
sS"hadn't"
p2562
I2
sS'teacher'
p2563
I3
sS'buck'
p2564
I18
sS'burt'
p2565
I2
sS'precursor'
p2566
I1
sS'trial'
p2567
I2
sS'whatsov'
p2568
I2
sS'regardless'
p2569
I4
sS'extra'
p2570
I3
sS'bullock'
p2571
I3
sS'fbi'
p2572
I3
sS'loutish'
p2573
I1
sS'market'
p2574
I7
sS'anesthet'
p2575
I1
sS'prove'
p2576
I23
sS'angela'
p2577
I1
sS'unctuous'
p2578
I1
sS'live'
p2579
I43
sS'jam'
p2580
I1
sS'schlock'
p2581
I2
sS'suppos'
p2582
I46
sS'bigg'
p2583
I2
sS'gentlemen"'
p2584
I1
sS'horrorshow'
p2585
I1
sS'club'
p2586
I5
sS'clue'
p2587
I8
sS'gwyne'
p2588
I1
sS'graphic'
p2589
I12
sS'car'
p2590
I22
sS'prepar'
p2591
I3
sS'cap'
p2592
I1
sS'cat'
p2593
I10
sS'can'
p2594
I89
sS'angrilli'
p2595
I1
sS'far-fetch'
p2596
I1
sS'heart'
p2597
I13
sS"didn't"
p2598
I165
sS'topic'
p2599
I4
sS'spi'
p2600
I4
sS'abort'
p2601
I6
sS'chin'
p2602
I1
sS'occur'
p2603
I3
sS'multipl'
p2604
I3
sS'bankrupt'
p2605
I1
sS'economi'
p2606
I2
sS'write'
p2607
I26
sS'nihilist'
p2608
I6
sS'flano'
p2609
I1
sS'nonstop'
p2610
I1
sS'crucifix'
p2611
I1
sS'spielberg'
p2612
I7
sS'pygmmalion'
p2613
I2
sS'coars'
p2614
I3
sS'southern'
p2615
I3
sS'lancast'
p2616
I1
sS'therbi'
p2617
I1
sS'iraq'
p2618
I3
sS"poke'mon"
p2619
I1
sS'escalad'
p2620
I1
sS"arn't"
p2621
I1
sS'bankabl'
p2622
I1
sS'favorit'
p2623
I15
sS'bean'
p2624
I3
sS'offens'
p2625
I17
sS'hyperc'
p2626
I1
sS'offend'
p2627
I10
sS'kurt'
p2628
I2
sS'stilt'
p2629
I1
sS'infiltr'
p2630
I1
sS'approv'
p2631
I1
sS'divin'
p2632
I2
sS'brain'
p2633
I18
sS'stile'
p2634
I4
sS'thinner'
p2635
I1
sS'cold'
p2636
I8
sS'still'
p2637
I33
sS'dynam'
p2638
I1
sS'sigourney'
p2639
I3
sS'sprinkl'
p2640
I1
sS'window'
p2641
I2
sS'mediocr'
p2642
I6
sS'factual'
p2643
I2
sS'non'
p2644
I2
sS'recal'
p2645
I9
sS'halt'
p2646
I1
sS'wealthi'
p2647
I1
sS'nod'
p2648
I1
sS'evoc'
p2649
I1
sS'overcrowd'
p2650
I1
sS'bilko'
p2651
I1
sS'flint'
p2652
I1
sS'1950'
p2653
I3
sS'threquel'
p2654
I1
sS'half'
p2655
I40
sS'not'
p2656
I336
sS'naiviti'
p2657
I1
sS'discust'
p2658
I1
sS'now'
p2659
I51
sS'hall'
p2660
I12
sS'nor'
p2661
I6
sS'introduct'
p2662
I1
sS'wont'
p2663
I4
sS'down'
p2664
I13
sS'honker'
p2665
I1
sS'drop'
p2666
I14
sS'magazin'
p2667
I2
sS'januari'
p2668
I1
sS'courag'
p2669
I1
sS'wonk'
p2670
I1
sS'em'
p2671
I6
sS'en'
p2672
I1
sS'ei'
p2673
I1
sS'eh'
p2674
I1
sS'ed'
p2675
I3
sS'kane'
p2676
I1
sS'yeah'
p2677
I14
sS'eb'
p2678
I1
sS'sugari'
p2679
I1
sS'battelfield'
p2680
I1
sS'ex'
p2681
I2
sS'year'
p2682
I102
sS'resourc'
p2683
I1
sS'happen'
p2684
I69
sS'es'
p2685
I1
sS'album'
p2686
I2
sS'croft'
p2687
I2
sS'shown'
p2688
I11
sS'accomplish'
p2689
I3
sS'jingoist'
p2690
I1
sS'ironi'
p2691
I1
sS'alllll'
p2692
I1
sS'carv'
p2693
I2
sS'cart'
p2694
I1
sS'argh'
p2695
I1
sS'cari'
p2696
I1
sS'rebel'
p2697
I3
sS'good-hearted'
p2698
I1
sS'card'
p2699
I5
sS'care'
p2700
I61
sS'scarri'
p2701
I4
sS'couldn'
p2702
I1
sS'1994'
p2703
I1
sS'british'
p2704
I12
sS'honest'
p2705
I25
sS'19th-centuri'
p2706
I1
sS'profess'
p2707
I2
sS'blind'
p2708
I3
sS'twenty-someth'
p2709
I1
sS'yourself'
p2710
I7
sS'aagghhwwww'
p2711
I1
sS'fi'
p2712
I3
sS'ring'
p2713
I9
sS'drove'
p2714
I2
sS'tomorrow'
p2715
I3
sS'size'
p2716
I3
sS'sheep'
p2717
I1
sS'sheer'
p2718
I3
sS'sheet'
p2719
I1
sS'silent'
p2720
I3
sS'lampoon'
p2721
I4
sS'caught'
p2722
I3
sS'silenc'
p2723
I2
sS'tragic'
p2724
I1
sS'breez'
p2725
I1
sS'let-down'
p2726
I1
sS'w-o-r-s-'
p2727
I1
sS'friend'
p2728
I44
sS'frasier'
p2729
I3
sS'thar'
p2730
I1
sS'especi'
p2731
I29
sS'coltrain'
p2732
I1
sS'quak'
p2733
I1
sS'x2'
p2734
I1
sS'than'
p2735
I38
sS'appleg'
p2736
I3
sS'seuss'
p2737
I3
sS'fruiti'
p2738
I2
sS'pablum'
p2739
I2
sS'marlon'
p2740
I2
sS'extinguish'
p2741
I1
sS'unecessari'
p2742
I2
sS'delic'
p2743
I1
sS'angel'
p2744
I3
sS'premier'
p2745
I1
sS'postpubesc'
p2746
I1
sS'anywher'
p2747
I6
sS'slap'
p2748
I3
sS'13th'
p2749
I7
sS'slam'
p2750
I2
sS'deliv'
p2751
I9
sS'anger'
p2752
I1
sS'rooki'
p2753
I2
sS'breakfast'
p2754
I1
sS'slab'
p2755
I1
sS'cavemen'
p2756
I1
sS'veteran'
p2757
I1
sS'deuc'
p2758
I1
sS'omnipres'
p2759
I1
sS'satellit'
p2760
I1
sS'titland'
p2761
I1
sS'diesal'
p2762
I1
sS'similiar'
p2763
I1
sS'deus'
p2764
I1
sS'begin'
p2765
I46
sS'prick'
p2766
I1
sS'price'
p2767
I5
sS'rankin'
p2768
I1
sS'disturbimg'
p2769
I1
sS'apocalypt'
p2770
I1
sS'wire'
p2771
I2
sS'america'
p2772
I27
sS']'
p2773
I1
sS'family-friend'
p2774
I3
sS'rescu'
p2775
I7
sS'egg'
p2776
I2
sS'hurley'
p2777
I1
sS'crossov'
p2778
I2
sS'steadi'
p2779
I1
sS'see-through'
p2780
I1
sS'german'
p2781
I3
sS'cowardic'
p2782
I1
sS'so-cal'
p2783
I7
sS'rendit'
p2784
I1
sS'plaeasur'
p2785
I1
sS'fifth'
p2786
I2
sS'ground'
p2787
I6
sS'aint'
p2788
I3
sS'onli'
p2789
I272
sS'snack'
p2790
I1
sS'stair'
p2791
I2
sS'anencephali'
p2792
I1
sS'mitzi'
p2793
I1
sS'jolt'
p2794
I1
sS'joli'
p2795
I10
sS'shrill'
p2796
I1
sS'waddl'
p2797
I1
sS'occumm'
p2798
I1
sS'cannon'
p2799
I1
sS'samuel'
p2800
I5
sS'loath'
p2801
I3
sS'cannot'
p2802
I6
sS'wahlberg'
p2803
I3
sS'truli'
p2804
I31
sS'culpabl'
p2805
I1
sS'raunchi'
p2806
I5
sS'leather'
p2807
I2
sS'seldom'
p2808
I2
sS'hostil'
p2809
I2
sS'day-car'
p2810
I1
sS'intermitt'
p2811
I1
sS'amanda'
p2812
I2
sS'husband'
p2813
I20
sS'concert'
p2814
I1
sS'burst'
p2815
I1
sS'unfil'
p2816
I1
sS'pharise'
p2817
I1
sS'asleep'
p2818
I55
sS'sport'
p2819
I4
sS'concern'
p2820
I5
sS'non-effronteri'
p2821
I1
sS'ambl'
p2822
I1
sS'excorsist'
p2823
I1
sS'3'
p2824
I40
sS'between'
p2825
I3
sS'import'
p2826
I10
sS'hurtl'
p2827
I1
sS'prettiest'
p2828
I1
sS'blame'
p2829
I10
sS'comeback'
p2830
I2
sS'rateital'
p2831
I3
sS'comed'
p2832
I4
sS'propagandist'
p2833
I1
sS'self-interest'
p2834
I1
sS'inconsist'
p2835
I2
sS'hearthrob'
p2836
I1
sS'prequel'
p2837
I1
sS'finace'
p2838
I1
sS'dung-beetl'
p2839
I1
sS'camcord'
p2840
I2
sS'exploit'
p2841
I7
sS"couldn't"
p2842
I79
sS'bratt'
p2843
I1
sS'damag'
p2844
I3
sS'claric'
p2845
I1
sS'jerki'
p2846
I3
sS'carey'
p2847
I7
sS'jess'
p2848
I1
sS'prdictabl'
p2849
I1
sS'emphas'
p2850
I1
sS'textbook'
p2851
I1
sS'betcha'
p2852
I1
sS'bout'
p2853
I2
sS'countless'
p2854
I2
sS'gilbreth'
p2855
I1
sS'these'
p2856
I25
sS'senat'
p2857
I1
sS'stereotyp'
p2858
I11
sS'trick'
p2859
I4
sS'scum'
p2860
I1
sS'possibly-imbr'
p2861
I1
sS'coolest'
p2862
I4
sS'susi'
p2863
I1
sS'henc'
p2864
I1
sS'worri'
p2865
I1
sS'bias'
p2866
I3
sS'eras'
p2867
I1
sS'beaver'
p2868
I2
sS'subscrib'
p2869
I1
sS'develop'
p2870
I27
sS'etc'
p2871
I13
sS'media'
p2872
I4
sS'neverend'
p2873
I1
sS'food'
p2874
I9
sS'poetic'
p2875
I1
sS'white--wer'
p2876
I1
sS'document'
p2877
I1
sS'extravaganza'
p2878
I2
sS'finish'
p2879
I9
sS'sleazest'
p2880
I1
sS'someon'
p2881
I51
sS'fruit'
p2882
I2
sS'theater'
p2883
I44
sS'traps'
p2884
I1
sS'charger'
p2885
I1
sS'bettani'
p2886
I1
sS'demean'
p2887
I3
sS'congressmen'
p2888
I1
sS'christophor'
p2889
I1
sS'disassoci'
p2890
I1
sS'taxi'
p2891
I2
sS'comment'
p2892
I25
sS'armour'
p2893
I1
sS'tobe'
p2894
I1
sS'touch'
p2895
I6
sS'speed'
p2896
I3
sS'death'
p2897
I27
sS'europ'
p2898
I1
sS'senseless'
p2899
I9
sS'treatment'
p2900
I4
sS'irrespons'
p2901
I2
sS'bordom'
p2902
I1
sS'earli'
p2903
I11
sS'hover'
p2904
I1
sS'stunk'
p2905
I8
sS'puuuuleeez'
p2906
I1
sS'caract'
p2907
I1
sS'amc'
p2908
I1
sS'ladi'
p2909
I7
sS'gonna'
p2910
I14
sS'ditz'
p2911
I1
sS'earnest'
p2912
I1
sS'detract'
p2913
I3
sS'vulgur'
p2914
I1
sS'stunt'
p2915
I5
sS'reav'
p2916
I1
sS'apathet'
p2917
I1
sS'redeam'
p2918
I3
sS'scatalog'
p2919
I1
sS'postcard'
p2920
I1
sS'fauker'
p2921
I1
sS't'
p2922
I37
sS'downward'
p2923
I1
sS'non-zombi'
p2924
I1
sS'pleeez'
p2925
I1
sS'ewww'
p2926
I1
sS'squirm'
p2927
I2
sS'manhatten'
p2928
I1
sS'inconist'
p2929
I1
sS'holywood'
p2930
I1
sS'sarandon'
p2931
I1
sS'novocain'
p2932
I1
sS'sadden'
p2933
I1
sS'sixti'
p2934
I2
sS'sixth'
p2935
I3
sS'starship'
p2936
I2
sS'vilain'
p2937
I1
sS'sadder'
p2938
I1
sS'throw'
p2939
I18
sS'molfan'
p2940
I1
sS'comparison'
p2941
I5
sS'patent'
p2942
I2
sS'wolv'
p2943
I2
sS'chop'
p2944
I2
sS'degre'
p2945
I4
sS'gump'
p2946
I1
sS'wolf'
p2947
I2
sS'chou'
p2948
I1
sS'chow'
p2949
I1
sS'palma'
p2950
I1
sS'badbadbadbadbad'
p2951
I1
sS'assassin'
p2952
I1
sS'elementari'
p2953
I1
sS'youd'
p2954
I1
sS'unsuccful'
p2955
I1
sS'nurs'
p2956
I5
sS'your'
p2957
I49
sS'stare'
p2958
I8
sS'ameil'
p2959
I1
sS'area'
p2960
I1
sS'starl'
p2961
I1
sS'lol'
p2962
I7
sS'start'
p2963
I58
sS'fascin'
p2964
I3
sS'low'
p2965
I23
sS'lot'
p2966
I55
sS'premis'
p2967
I17
sS'pre-teen'
p2968
I1
sS'seagal'
p2969
I1
sS'recoil'
p2970
I1
sS'freddi'
p2971
I12
sS'atavist'
p2972
I1
sS'hire'
p2973
I6
sS'fraud'
p2974
I2
sS'furthermor'
p2975
I2
sS'bow-wow'
p2976
I1
sS'minni'
p2977
I1
sS'bucket'
p2978
I2
sS'one-star'
p2979
I2
sS'unexcit'
p2980
I2
sS'movei'
p2981
I1
sS'mutin'
p2982
I1
sS'nerv'
p2983
I2
sS'stigmata'
p2984
I1
sS'salem'
p2985
I1
sS'cinematographi'
p2986
I10
sS'pokemon4ev'
p2987
I1
sS'mockumentari'
p2988
I1
sS'valid'
p2989
I2
sS'kubric'
p2990
I1
sS'you'
p2991
I227
sS'3-d'
p2992
I1
sS'poor'
p2993
I62
sS'poop'
p2994
I10
sS'60s'
p2995
I3
sS'unadulter'
p2996
I2
sS'drift'
p2997
I2
sS'overreact'
p2998
I1
sS'peak'
p2999
I1
sS'torcher'
p3000
I1
sS'pooh'
p3001
I1
sS'peac'
p3002
I5
sS'pool'
p3003
I3
sS'left-w'
p3004
I1
sS'reduc'
p3005
I1
sS'philosoph'
p3006
I1
sS'inevit'
p3007
I1
sS'carlin'
p3008
I1
sS'coke-bottl'
p3009
I1
sS'vineg'
p3010
I1
sS'teeny-bopp'
p3011
I1
sS'messi'
p3012
I3
sS'reinstitut'
p3013
I1
sS'monti'
p3014
I3
sS'month'
p3015
I4
sS'langaug'
p3016
I1
sS'cameron'
p3017
I8
sS'habla'
p3018
I1
sS'corps'
p3019
I3
sS'half-way'
p3020
I2
sS'gymnast'
p3021
I1
sS'embarras'
p3022
I5
sS'inaud'
p3023
I1
sS'articl'
p3024
I2
sS'foxxi'
p3025
I1
sS'comerci'
p3026
I1
sS'fountain'
p3027
I2
sS'vers'
p3028
I1
sS'masquerad'
p3029
I1
sS'horror'
p3030
I101
sS'rober'
p3031
I1
sS'mph'
p3032
I2
sS'vera'
p3033
I1
sS'mechan'
p3034
I1
sS'mps'
p3035
I1
sS'veri'
p3036
I204
sS'binoch'
p3037
I1
sS'begot'
p3038
I1
sS'milf'
p3039
I1
sS'heaven'
p3040
I2
sS'--'
p3041
I17
sS'louis'
p3042
I1
sS'-5'
p3043
I1
sS'-1'
p3044
I1
sS'crummiest'
p3045
I1
sS'anal'
p3046
I1
sS'-8'
p3047
I1
sS'louie'
p3048
I1
sS"i'll"
p3049
I39
sS'predispos'
p3050
I1
sS'narrat'
p3051
I4
sS'sould'
p3052
I1
sS'showgirl'
p3053
I1
sS'primer'
p3054
I1
sS'rooney'
p3055
I1
sS'stalin'
p3056
I1
sS"should'v"
p3057
I4
sS'jedi'
p3058
I1
sS'consecut'
p3059
I1
sS'essenc'
p3060
I3
sS'cannib'
p3061
I3
sS'pacif'
p3062
I1
sS'hoolywood'
p3063
I1
sS'theatric'
p3064
I1
sS'vet'
p3065
I3
sS'trunk'
p3066
I1
sS'prologu'
p3067
I1
sS'strong'
p3068
I5
sS'b5644om'
p3069
I1
sS'whini'
p3070
I1
sS'rork'
p3071
I1
sS'ahead'
p3072
I4
sS'whine'
p3073
I3
sS'forefath'
p3074
I1
sS'whing'
p3075
I1
sS'latournoesqu'
p3076
I1
sS'soldier'
p3077
I6
sS'amount'
p3078
I1
sS'creepi'
p3079
I12
sS'trainer'
p3080
I1
sS'drippi'
p3081
I1
sS'put'
p3082
I35
sS'slavish'
p3083
I1
sS'fail-saf'
p3084
I1
sS'famili'
p3085
I22
sS'story-'
p3086
I1
sS'globet'
p3087
I1
sS'hardlli'
p3088
I1
sS'khan'
p3089
I1
sS'helper'
p3090
I1
sS'iraqi'
p3091
I1
sS'containm'
p3092
I1
sS'nauseat'
p3093
I6
sS'yummi'
p3094
I1
sS'basi'
p3095
I1
sS'stand-up'
p3096
I1
sS'pixar'
p3097
I1
sS'chestnut'
p3098
I1
sS'squid'
p3099
I1
sS'yuck'
p3100
I8
sS'self-exploit'
p3101
I1
sS'tumbl'
p3102
I1
sS'hurri'
p3103
I1
sS'portman'
p3104
I2
sS'broke'
p3105
I1
sS'cannibalist'
p3106
I1
sS'mish-mash'
p3107
I1
sS'church'
p3108
I1
sS'historc'
p3109
I1
sS'daisi'
p3110
I2
sS'histori'
p3111
I40
sS'soderburgh'
p3112
I1
sS'yemen'
p3113
I1
sS're-tel'
p3114
I1
sS'againest'
p3115
I1
sS'gardener"'
p3116
I1
sS'18th-'
p3117
I1
sS'boycott'
p3118
I2
sS'teenage-wannab'
p3119
I1
sS'over-compens'
p3120
I1
sS'string'
p3121
I2
sS'bowmp-ba-bowmp'
p3122
I1
sS'anoth'
p3123
I103
sS'nah-uh'
p3124
I1
sS'ledger'
p3125
I1
sS'snippet'
p3126
I1
sS'reject'
p3127
I1
sS'b-rat'
p3128
I2
sS'businessmen'
p3129
I1
sS'idioci'
p3130
I1
sS'deja'
p3131
I1
sS'rude'
p3132
I2
sS'fx'
p3133
I8
sS'rudi'
p3134
I1
sS'sneak'
p3135
I2
sS'hubbard'
p3136
I1
sS'costner'
p3137
I4
sS'nothinig'
p3138
I1
sS'a'
p3139
I908
sS'sodomi'
p3140
I1
sS'humbug'
p3141
I1
sS'undergo'
p3142
I1
sS'skywalk'
p3143
I1
sS'genuflect'
p3144
I1
sS'ego'
p3145
I3
sS'dread'
p3146
I18
sS'hobbit'
p3147
I2
sS'dream'
p3148
I12
sS'bug-ey'
p3149
I1
sS'casablanca'
p3150
I1
sS'hels'
p3151
I3
sS'sooo'
p3152
I4
sS'soon'
p3153
I6
sS'held'
p3154
I5
sS'art-hous'
p3155
I1
sS'hell'
p3156
I54
sS'obscen'
p3157
I3
sS'rated-r'
p3158
I1
sS'dino'
p3159
I1
sS'brittney'
p3160
I1
sS'astonish'
p3161
I2
sS"haven't"
p3162
I19
sS'fool'
p3163
I16
sS'yo'
p3164
I2
sS'ya'
p3165
I4
sS'sentenc'
p3166
I4
sS'vomit'
p3167
I12
sS'foot'
p3168
I3
sS'studi'
p3169
I1
sS'well-known'
p3170
I1
sS"o'teri"
p3171
I1
sS'fairi'
p3172
I1
sS'radiat'
p3173
I1
sS'"nation'
p3174
I1
sS'fulli'
p3175
I4
sS'intervent'
p3176
I1
sS'trailer'
p3177
I15
sS'ooooohhhhh'
p3178
I1
sS'heavi'
p3179
I3
sS'beyond'
p3180
I23
sS'event'
p3181
I14
sS'wacki'
p3182
I1
sS'peic'
p3183
I11
sS'safeti'
p3184
I1
sS'recenti'
p3185
I1
sS'robert'
p3186
I23
sS'publish'
p3187
I2
sS'hayden'
p3188
I1
sS'sustain'
p3189
I1
sS'7'
p3190
I13
sS'ass'
p3191
I21
sS'pun'
p3192
I4
sS'columbin'
p3193
I3
sS'post-walt'
p3194
I1
sS'dung'
p3195
I2
sS'reason'
p3196
I55
sS'base'
p3197
I41
sS'housew'
p3198
I1
sS'dire'
p3199
I2
sS'ask'
p3200
I22
sS'bask'
p3201
I1
sS'heroic'
p3202
I5
sS'revigor'
p3203
I1
sS'launch'
p3204
I1
sS'unorign'
p3205
I1
sS'dy-no-mit'
p3206
I1
sS'revolutionari'
p3207
I1
sS'american'
p3208
I49
sS'kung'
p3209
I1
sS'heartbeat'
p3210
I1
sS'lifetim'
p3211
I1
sS'singleton'
p3212
I1
sS'screetch'
p3213
I1
sS'promedio'
p3214
I1
sS'crapi'
p3215
I2
sS'elder'
p3216
I1
sS'river'
p3217
I1
sS'uninterest'
p3218
I11
sS'miss'
p3219
I25
sS'big-tim'
p3220
I1
sS'rahhhh'
p3221
I1
sS'eddi'
p3222
I4
sS'fraggl'
p3223
I1
sS'station'
p3224
I5
sS'adher'
p3225
I1
sS'underdevelop'
p3226
I2
sS'bowel'
p3227
I2
sS'jordan'
p3228
I1
sS'boredom'
p3229
I3
sS'death-induc'
p3230
I1
sS're-writ'
p3231
I1
sS'anti-technolog'
p3232
I1
sS'grey'
p3233
I1
sS'purposeless'
p3234
I1
sS'scandinavian'
p3235
I1
sS'bride'
p3236
I3
sS'groceri'
p3237
I1
sS'bridg'
p3238
I4
sS'wrasslin'
p3239
I1
sS'consumpt'
p3240
I1
sS'toward'
p3241
I1
sS'dtv'
p3242
I1
sS'meanac'
p3243
I1
sS'mickey'
p3244
I1
sS'phobia'
p3245
I1
sS'wasnt'
p3246
I7
sS'well-written'
p3247
I1
sS'juici'
p3248
I1
sS'sensual'
p3249
I1
sS'lie'
p3250
I20
sS'jour'
p3251
I1
sS'lil'
p3252
I1
sS'cave'
p3253
I1
sS'unintent'
p3254
I4
sS'lip'
p3255
I1
sS'useless'
p3256
I13
sS'liz'
p3257
I3
sS'mixtur'
p3258
I1
sS'eaten'
p3259
I3
sS'watt'
p3260
I2
sS'suitcas'
p3261
I1
sS'kay'
p3262
I2
sS'interes'
p3263
I1
sS'wats'
p3264
I1
sS'clear'
p3265
I11
sS'salari'
p3266
I2
sS'tongu'
p3267
I2
sS'usual'
p3268
I36
sS'awesom'
p3269
I11
sS'ozbourn'
p3270
I1
sS'phenomenon'
p3271
I3
sS'6-year'
p3272
I1
sS'favour'
p3273
I3
sS'netherworld'
p3274
I1
sS'carier'
p3275
I1
sS'top-notch'
p3276
I1
sS'cinamat'
p3277
I1
sS'kinsey'
p3278
I1
sS'randi'
p3279
I4
sS'pretti'
p3280
I62
sS'paranoid'
p3281
I2
sS'flesh'
p3282
I4
sS'you-know-who'
p3283
I1
sS'litl'
p3284
I1
sS'central'
p3285
I1
sS'hogwart'
p3286
I1
sS'palett'
p3287
I1
sS'pontif'
p3288
I1
sS'strut'
p3289
I1
sS'nativ'
p3290
I3
sS'performan'
p3291
I1
sS'basement'
p3292
I3
sS'fluff'
p3293
I3
sS'nnnooooo'
p3294
I1
sS'beatlemania'
p3295
I1
sS'hype'
p3296
I28
sS'x'
p3297
I5
sS'ixnay'
p3298
I1
sS'cramp'
p3299
I1
sS'schwimmer'
p3300
I1
sS'delus'
p3301
I1
sS'mcgowan'
p3302
I1
sS'dakota'
p3303
I1
sS'afor'
p3304
I1
sS'close'
p3305
I17
sS'whatsoev'
p3306
I19
sS'dwarf'
p3307
I1
sS'cheapshot'
p3308
I1
sS'horrif'
p3309
I4
sS'horrid'
p3310
I23
sS'wou'
p3311
I1
sS'wow'
p3312
I20
sS'grandmoth'
p3313
I1
sS'particip'
p3314
I2
sS'woo'
p3315
I4
sS'won'
p3316
I9
sS'entwin'
p3317
I1
sS'woe'
p3318
I2
sS'piss'
p3319
I10
sS'dalla'
p3320
I2
sS'blacula'
p3321
I1
sS'numer'
p3322
I2
sS'saggin'
p3323
I1
sS'spray'
p3324
I2
sS"should'nt"
p3325
I1
sS'distinguish'
p3326
I1
sS'okinawa'
p3327
I1
sS'both'
p3328
I21
sS'infami'
p3329
I1
sS'anoy'
p3330
I1
sS"wouldn't"
p3331
I26
sS'buzz'
p3332
I2
sS'vault'
p3333
I1
sS'unhatch'
p3334
I1
sS'jeff'
p3335
I4
sS'puritan'
p3336
I1
sS'storyline-'
p3337
I1
sS'batteri'
p3338
I1
sS'deceiv'
p3339
I1
sS'forgiv'
p3340
I3
sS'atmospher'
p3341
I3
sS'mutini'
p3342
I1
sS'celluloid'
p3343
I6
sS'help'
p3344
I27
sS'territori'
p3345
I1
sS'empti'
p3346
I10
sS'newcom'
p3347
I1
sS'damn'
p3348
I19
sS'threaten'
p3349
I3
sS'napl'
p3350
I1
sS'dame'
p3351
I1
sS'anthoni'
p3352
I2
sS'invis'
p3353
I5
sS'liven'
p3354
I1
sS'imag'
p3355
I6
sS'citizen'
p3356
I1
sS'imax'
p3357
I3
sS'jsut'
p3358
I1
sS'loon'
p3359
I1
sS'overplay'
p3360
I1
sS'look'
p3361
I145
sS'gale'
p3362
I1
sS'canadian'
p3363
I1
sS'pace'
p3364
I10
sS'bikini'
p3365
I2
sS'jkook'
p3366
I1
sS'ought'
p3367
I4
sS'loos'
p3368
I5
sS'loop'
p3369
I1
sS'pack'
p3370
I4
sS'asund'
p3371
I1
sS'readi'
p3372
I7
sS'roll-your-ey'
p3373
I1
sS'bow'
p3374
I1
sS'shat'
p3375
I2
sS'grant'
p3376
I7
sS'belong'
p3377
I6
sS'masscr'
p3378
I1
sS'cinimat'
p3379
I1
sS'karl'
p3380
I1
sS'grand'
p3381
I1
sS'teen-styl'
p3382
I1
sS'conflict'
p3383
I1
sS'sham'
p3384
I2
sS'imagin'
p3385
I19
sS'optim'
p3386
I6
sS'crud'
p3387
I2
sS'banter'
p3388
I1
sS'blair'
p3389
I14
sS'overweight'
p3390
I1
sS'entireti'
p3391
I1
sS'inflat'
p3392
I2
sS'000'
p3393
I5
sS'inflam'
p3394
I2
sS'older'
p3395
I7
sS'grossli'
p3396
I4
sS'grind'
p3397
I2
sS'cruxifict'
p3398
I1
sS'vioent'
p3399
I1
sS'butthol'
p3400
I1
sS'chore'
p3401
I1
sS'woodchipp'
p3402
I1
sS'marque'
p3403
I1
sS'rambo'
p3404
I2
sS'pryce'
p3405
I1
sS"ya'know"
p3406
I1
sS'$'
p3407
I22
sS'soooooo'
p3408
I2
sS'subsequ'
p3409
I2
sS'soliloquy'
p3410
I1
sS'march'
p3411
I1
sS'filmset'
p3412
I1
sS'innat'
p3413
I1
sS'game'
p3414
I25
sS'characterist'
p3415
I1
sS'innan'
p3416
I1
sS'backbon'
p3417
I1
sS'signal'
p3418
I1
sS'resolv'
p3419
I1
sS'manifest'
p3420
I1
sS'dreck'
p3421
I12
sS'puh-leas'
p3422
I1
sS'popular'
p3423
I17
sS'cruis'
p3424
I14
sS'sketch'
p3425
I1
sS'trendi'
p3426
I1
sS'some'
p3427
I105
sS'anti-american'
p3428
I1
sS'syndrom'
p3429
I1
sS'chocol'
p3430
I2
sS'debri'
p3431
I1
sS'overemot'
p3432
I1
sS'slash'
p3433
I1
sS'forgett'
p3434
I3
sS'slapstick'
p3435
I1
sS'akward'
p3436
I1
sS'nelli'
p3437
I2
sS'run'
p3438
I40
sS'rub'
p3439
I2
sS'raspberri'
p3440
I1
sS'aerosmith'
p3441
I1
sS'step'
p3442
I7
sS'rut'
p3443
I1
sS'shine'
p3444
I4
sS'faith'
p3445
I6
sS'wouldnt'
p3446
I4
sS'deceas'
p3447
I1
sS'shini'
p3448
I2
sS'crisi'
p3449
I2
sS'sake'
p3450
I8
sS'congressman'
p3451
I2
sS'armand'
p3452
I1
sS'block'
p3453
I1
sS'kedward'
p3454
I2
sS'smelli'
p3455
I1
sS'visit'
p3456
I4
sS'within'
p3457
I1
sS'over-elabor'
p3458
I1
sS'absent-mind'
p3459
I1
sS'yicki'
p3460
I1
sS'institut'
p3461
I2
sS'dismal'
p3462
I2
sS'zzzzz'
p3463
I1
sS'inacur'
p3464
I1
sS'tobey'
p3465
I1
sS'rees'
p3466
I4
sS'reev'
p3467
I6
sS'inept'
p3468
I2
sS'anti-fast'
p3469
I1
sS'branch'
p3470
I1
sS'russian'
p3471
I2
sS'reek'
p3472
I2
sS'reel'
p3473
I3
sS'dull'
p3474
I39
sS'skull'
p3475
I3
sS'reload'
p3476
I2
sS'grinch'
p3477
I2
sS'role-play'
p3478
I1
sS'festiv'
p3479
I2
sS'similar'
p3480
I4
sS'bever'
p3481
I1
sS'willem'
p3482
I1
sS'flush'
p3483
I1
sS'doesn'
p3484
I1
sS'repres'
p3485
I4
sS'guarante'
p3486
I2
sS'psychopath'
p3487
I1
sS'cotton'
p3488
I3
sS'nag'
p3489
I1
sS'insomniac'
p3490
I1
sS'objection'
p3491
I6
sS'creeper'
p3492
I2
sS'eerili'
p3493
I1
sS'-the'
p3494
I1
sS'hoopla'
p3495
I1
sS'manhattan'
p3496
I2
sS'draw'
p3497
I1
sS'clean'
p3498
I8
sS'deplict'
p3499
I1
sS'william'
p3500
I8
sS'drag'
p3501
I29
sS'drab'
p3502
I1
sS'mamet'
p3503
I1
sS'supris'
p3504
I2
sS'overlong'
p3505
I2
sS'aboman'
p3506
I1
sS'dvd'
p3507
I14
sS'heath'
p3508
I1
sS'depth'
p3509
I9
sS'bribe'
p3510
I1
sS'ceratosaur'
p3511
I1
sS'letgodbetru'
p3512
I1
sS'kati'
p3513
I2
sS'ritualist'
p3514
I1
sS'go'
p3515
I98
sS'psycho'
p3516
I6
sS'kate'
p3517
I5
sS'ridicul'
p3518
I39
sS'vacuous'
p3519
I1
sS'wizard'
p3520
I1
sS'shack'
p3521
I1
sS'airplan'
p3522
I4
sS'nichola'
p3523
I3
sS'wave'
p3524
I5
sS'kirsten'
p3525
I2
sS'stiff'
p3526
I6
sS'gender'
p3527
I1
sS'button'
p3528
I2
sS'michael'
p3529
I29
sS'stifl'
p3530
I1
sS'ryan'
p3531
I10
sS'verdict'
p3532
I1
sS'barbara'
p3533
I1
sS'dicktatorship'
p3534
I1
sS'stairway'
p3535
I1
sS'bleechhh'
p3536
I1
sS'nowwwwwww'
p3537
I1
sS'pornographi'
p3538
I2
sS'ze'
p3539
I1
sS'uniqu'
p3540
I4
sS'jump'
p3541
I17
sS'booti'
p3542
I1
sS'booth'
p3543
I1
sS'computer-gener'
p3544
I1
sS'clich'
p3545
I21
sS'poke'
p3546
I3
sS'capial'
p3547
I1
sS'slight'
p3548
I11
sS'bergman'
p3549
I1
sS'cell'
p3550
I2
sS'rotten'
p3551
I5
sS';'
p3552
I41
sS'charactor'
p3553
I3
sS'newton-john'
p3554
I2
sS'madelin'
p3555
I1
sS'hasbeen'
p3556
I1
sS'becom'
p3557
I17
sS'northern'
p3558
I1
sS'reenfirc'
p3559
I1
sS'repet'
p3560
I1
sS'vacat'
p3561
I3
sS"weren't"
p3562
I19
sS'chang'
p3563
I15
sS'gene'
p3564
I8
sS'chanc'
p3565
I9
sS'danger'
p3566
I5
sS'win'
p3567
I11
sS'wit'
p3568
I19
sS'infest'
p3569
I1
sS'gimmick'
p3570
I1
sS'well-don'
p3571
I2
sS'cloud'
p3572
I1
sS'carzi'
p3573
I1
sS'metaphor'
p3574
I1
sS'snoop'
p3575
I3
sS'hudson'
p3576
I5
sS'snooz'
p3577
I1
sS'implic'
p3578
I2
sS'camera'
p3579
I22
sS'conneri'
p3580
I4
sS'jonathan'
p3581
I2
sS'adequaci'
p3582
I1
sS'prostitute-worn'
p3583
I1
sS'villechev'
p3584
I1
sS'salad'
p3585
I1
sS'chianti'
p3586
I1
sS'ride'
p3587
I6
sS'lawer'
p3588
I2
sS'zaillian'
p3589
I1
sS'meet'
p3590
I13
sS'vaunt'
p3591
I1
sS'control'
p3592
I13
sS'halloween'
p3593
I16
sS'displeasur'
p3594
I1
sS'georg'
p3595
I14
sS'stockard'
p3596
I1
sS'nari'
p3597
I1
sS'ugghhhh'
p3598
I1
sS'overst'
p3599
I1
sS'fare'
p3600
I5
sS'prolif'
p3601
I1
sS'farc'
p3602
I3
sS'farm'
p3603
I1
sS'outdid'
p3604
I1
sS'iren'
p3605
I1
sS'fart'
p3606
I3
sS'booooor'
p3607
I2
sS'sonor'
p3608
I1
sS'certainti'
p3609
I1
sS'masturb'
p3610
I5
sS'unnessacari'
p3611
I1
sS'famous'
p3612
I7
sS'escepi'
p3613
I1
sS'agenda'
p3614
I2
sS'cattl'
p3615
I1
sS'longest'
p3616
I2
sS'ummmmm'
p3617
I1
sS'sperm'
p3618
I1
sS'unbor'
p3619
I1
sS'gunman'
p3620
I1
sS'blake'
p3621
I1
sS'outer'
p3622
I7
sS'affleck'
p3623
I8
sS'guerrilla'
p3624
I1
sS'brook'
p3625
I1
sS'kinnear'
p3626
I1
sS'pure'
p3627
I28
sS'handl'
p3628
I2
sS'tribut'
p3629
I1
sS'gwyneth'
p3630
I3
sS'zellweg'
p3631
I2
sS'tribul'
p3632
I1
sS'nihil'
p3633
I1
sS'front'
p3634
I5
sS'hannib'
p3635
I3
sS'somewher'
p3636
I7
sS'slide'
p3637
I2
sS'mode'
p3638
I2
sS'hunder'
p3639
I1
sS'bekong'
p3640
I1
sS'upward'
p3641
I1
sS'wrose'
p3642
I1
sS'chunk'
p3643
I1
sS'attitdu'
p3644
I1
sS'flop-sweat'
p3645
I1
sS'special'
p3646
I57
sS'1999-film'
p3647
I1
sS'eugen'
p3648
I1
sS'armor'
p3649
I2
sS'confess'
p3650
I1
sS'closer'
p3651
I4
sS'fathom'
p3652
I1
sS'cop-out'
p3653
I1
sS'loreena'
p3654
I1
sS'activist'
p3655
I1
sS'mottola'
p3656
I1
sS'wich'
p3657
I1
sS'wick'
p3658
I2
sS'obsess'
p3659
I2
sS'achiv'
p3660
I1
sS'cemistri'
p3661
I1
sS'filthi'
p3662
I1
sS'manipul'
p3663
I8
sS'70s'
p3664
I4
sS'trashi'
p3665
I4
sS'witht'
p3666
I1
sS'princess'
p3667
I2
sS'shrew'
p3668
I2
sS'etern'
p3669
I3
sS'deceipt'
p3670
I2
sS'unwant'
p3671
I1
sS'keep'
p3672
I18
sS'slow-pac'
p3673
I1
sS'keel'
p3674
I1
sS'shrek'
p3675
I4
sS'mankind'
p3676
I3
sS'sheesh'
p3677
I1
sS'airborn'
p3678
I1
sS'christoph'
p3679
I8
sS'qualiti'
p3680
I18
sS'seventeen'
p3681
I2
sS'bitch'
p3682
I5
sS'such'
p3683
I54
sS'hehe'
p3684
I1
sS'britani'
p3685
I1
sS'dove'
p3686
I1
sS'attack'
p3687
I11
sS'noooooo'
p3688
I1
sS'rebelli'
p3689
I1
sS'final'
p3690
I29
sS'2-3'
p3691
I1
sS'punish'
p3692
I6
sS'blechhhh'
p3693
I1
sS'herself'
p3694
I7
sS'apologist'
p3695
I1
sS'waist'
p3696
I10
sS'stupend'
p3697
I1
sS'lamborghini'
p3698
I1
sS'ben'
p3699
I17
sS'bloat'
p3700
I2
sS'beg'
p3701
I3
sS'bed'
p3702
I4
sS'bee'
p3703
I5
sS'berat'
p3704
I1
sS'ber'
p3705
I1
sS'f13'
p3706
I1
sS'yawner'
p3707
I1
sS'comite'
p3708
I1
sS'acadami'
p3709
I1
sS'bet'
p3710
I7
sS'exhibit'
p3711
I1
sS'robocop'
p3712
I1
sS'bordem'
p3713
I1
sS'barf'
p3714
I2
sS'torment'
p3715
I1
sS'tabl'
p3716
I3
sS'need'
p3717
I81
sS'kelley'
p3718
I1
sS'tale'
p3719
I12
sS'bastard'
p3720
I5
sS'unawar'
p3721
I1
sS'aids-infect'
p3722
I1
sS'so'
p3723
I234
sS'kemaya'
p3724
I1
sS'hackman'
p3725
I4
sS'happi'
p3726
I18
sS'textur'
p3727
I1
sS'dissappoint'
p3728
I1
sS'moments"'
p3729
I1
sS'deplor'
p3730
I3
sS'discov'
p3731
I5
sS'awe'
p3732
I4
sS'plumber'
p3733
I1
sS'urg'
p3734
I3
sS'eject'
p3735
I2
sS'upset'
p3736
I2
sS'inde'
p3737
I3
sS'skunk'
p3738
I1
sS'indi'
p3739
I1
sS'affair'
p3740
I3
sS'tolkien'
p3741
I1
sS'anyway'
p3742
I14
sS'tire'
p3743
I16
sS'('
p3744
I63
sS'winner'
p3745
I3
sS'forev'
p3746
I8
sS'hector'
p3747
I1
sS'lip-synch'
p3748
I1
sS'fuel'
p3749
I1
sS'stupid-lik'
p3750
I1
sS'atual'
p3751
I1
sS'discontinu'
p3752
I1
sS'michigan'
p3753
I1
sS'dodgi'
p3754
I1
sS'120'
p3755
I1
sS'joint'
p3756
I1
sS'kiefer'
p3757
I1
sS'tbn'
p3758
I1
sS'blaze'
p3759
I2
sS'tearjerk'
p3760
I1
sS'endless'
p3761
I3
sS'gray'
p3762
I1
sS'uncontest'
p3763
I1
sS'somth'
p3764
I1
sS'gush'
p3765
I1
sS'contain'
p3766
I9
sS'shi'
p3767
I4
sS'grab'
p3768
I5
sS'preach'
p3769
I2
sS'legaci'
p3770
I2
sS'pitch'
p3771
I3
sS'bollock'
p3772
I1
sS'computer'
p3773
I1
sS'powder'
p3774
I1
sS'statu'
p3775
I2
sS'writter'
p3776
I2
sS'tend'
p3777
I6
sS'written'
p3778
I32
sS'afauwl'
p3779
I1
sS'lug'
p3780
I1
sS'tens'
p3781
I1
sS'neither'
p3782
I6
sS'sold'
p3783
I8
sS'tent'
p3784
I1
sS'ken'
p3785
I1
sS'bleed'
p3786
I1
sS'kee'
p3787
I1
sS'ked'
p3788
I1
sS'isol'
p3789
I1
sS'geesh'
p3790
I1
sS'gilmor'
p3791
I3
sS'key'
p3792
I2
sS'precious'
p3793
I2
sS'monitor'
p3794
I1
sS'mcconahay'
p3795
I2
sS'actre'
p3796
I1
sS'admit'
p3797
I14
sS'congrat'
p3798
I1
sS'admir'
p3799
I2
sS'journey'
p3800
I1
sS'gasp'
p3801
I1
sS'torn'
p3802
I1
sS'craptast'
p3803
I1
sS'quit'
p3804
I37
sS'slowli'
p3805
I1
sS'domanatrix'
p3806
I1
sS'reptil'
p3807
I1
sS'"rosemari'
p3808
I1
sS'cent'
p3809
I3
sS'willi'
p3810
I8
sS'treat'
p3811
I8
sS'eraser'
p3812
I1
sS'poet'
p3813
I1
sS'asinin'
p3814
I2
sS'fairytal'
p3815
I1
sS'sart'
p3816
I1
sS'pic'
p3817
I2
sS'plausibl'
p3818
I1
sS'shameless'
p3819
I4
sS'renegad'
p3820
I1
sS'replic'
p3821
I2
sS'novel'
p3822
I10
sS'screencap'
p3823
I1
sS'televison'
p3824
I1
sS'harder'
p3825
I2
sS'leathal'
p3826
I1
sS'keaton'
p3827
I2
sS'whoopdi'
p3828
I1
sS'engag'
p3829
I5
sS'fonda'
p3830
I2
sS'demm'
p3831
I1
sS'hauer'
p3832
I1
sS'reviv'
p3833
I2
sS'-year-old'
p3834
I1
sS'welcom'
p3835
I3
sS'generic'
p3836
I1
sS'parti'
p3837
I8
sS'began'
p3838
I5
sS'hellrais'
p3839
I2
sS'folklor'
p3840
I1
sS'rubish'
p3841
I1
sS'colostomi'
p3842
I1
sS'fido'
p3843
I1
sS'strangl'
p3844
I3
sS'fubar'
p3845
I1
sS'http'
p3846
I2
sS'forgotten'
p3847
I5
sS'effect'
p3848
I78
sS'cartoon-lik'
p3849
I1
sS'initi'
p3850
I2
sS'feelin'
p3851
I2
sS'frikin'
p3852
I1
sS'ashley'
p3853
I2
sS'surfboard'
p3854
I1
sS'lunch'
p3855
I1
sS'i'
p3856
I761
sS'well'
p3857
I54
sS'grenad'
p3858
I1
sS'taller'
p3859
I1
sS'mistaken'
p3860
I3
sS'dose'
p3861
I1
sS'unattract'
p3862
I2
sS'distant'
p3863
I1
sS'40'
p3864
I4
sS'skill'
p3865
I11
sS'lauren'
p3866
I1
sS'knee-deep'
p3867
I1
sS'snicker'
p3868
I1
sS'patricia'
p3869
I2
sS'crocodil'
p3870
I1
sS'warrant'
p3871
I1
sS'kick'
p3872
I16
sS'sonic'
p3873
I1
sS'fate'
p3874
I3
sS'utah'
p3875
I1
sS'sweep'
p3876
I1
sS'unseem'
p3877
I1
sS'unseen'
p3878
I1
sS'goodguy'
p3879
I1
sS'loss'
p3880
I1
sS'sissi'
p3881
I2
sS'lost'
p3882
I33
sS'saget'
p3883
I1
sS'clown'
p3884
I4
sS'non-actor'
p3885
I1
sS'roth'
p3886
I1
sS'necessari'
p3887
I5
sS'martin'
p3888
I13
sS're-mak'
p3889
I2
sS'page'
p3890
I4
sS'candi'
p3891
I6
sS'shed'
p3892
I2
sS'didn'
p3893
I2
sS'glare'
p3894
I2
sS'donnot'
p3895
I1
sS'lsd'
p3896
I1
sS'shes'
p3897
I2
sS'annett'
p3898
I1
sS'home'
p3899
I23
sS'jlo'
p3900
I1
sS'peter'
p3901
I11
sS'librari'
p3902
I1
sS'wendi'
p3903
I1
sS'allegori'
p3904
I1
sS'tie-di'
p3905
I1
sS'broad'
p3906
I1
sS'bullsh'
p3907
I1
sS'e-mail'
p3908
I1
sS'?'
p3909
I121
sS'duh'
p3910
I3
sS'encourag'
p3911
I1
sS'whippdey'
p3912
I1
sS'ridley'
p3913
I2
sS'poignant'
p3914
I1
sS'swayz'
p3915
I1
sS'bodybuild'
p3916
I1
sS'quarter'
p3917
I1
sS'freedom'
p3918
I2
sS'stamp'
p3919
I1
sS'unbreak'
p3920
I1
sS'blockbust'
p3921
I10
sS'politicak'
p3922
I1
sS'glenn'
p3923
I1
sS'tortur'
p3924
I15
sS'washington'
p3925
I1
sS'disat'
p3926
I1
sS'primat'
p3927
I1
sS'j-lo'
p3928
I2
sS'couldnt'
p3929
I3
sS'pointless'
p3930
I39
sS'doubtless'
p3931
I1
sS'prozac'
p3932
I1
sS'now-a-day'
p3933
I1
sS'museum'
p3934
I1
sS'wimp'
p3935
I1
sS'scivvi'
p3936
I1
sS'inner'
p3937
I1
sS'north'
p3938
I3
sS'goali'
p3939
I1
sS'hi'
p3940
I1
sS'gain'
p3941
I3
sS'whistl'
p3942
I1
sS'overflow'
p3943
I1
sS'ear'
p3944
I7
sS'nicol'
p3945
I6
sS'he'
p3946
I138
sS'puh-leez'
p3947
I1
sS'cruel'
p3948
I4
sS'barbershop'
p3949
I1
sS'aflac'
p3950
I1
sS'dmx'
p3951
I3
sS'evalu'
p3952
I1
sS'duchovney'
p3953
I1
sS'beatl'
p3954
I4
sS'twist'
p3955
I12
sS'conan'
p3956
I2
sS'muder'
p3957
I1
sS'mauri'
p3958
I1
sS'penni'
p3959
I1
sS'eric'
p3960
I2
sS'crummi'
p3961
I1
sS'contest'
p3962
I2
sS'futur'
p3963
I7
sS'meteor'
p3964
I1
sS'talkin'
p3965
I1
sS'characterwho'
p3966
I1
sS'star'
p3967
I128
sS'pleassureful'
p3968
I1
sS'stay'
p3969
I32
sS'foil'
p3970
I1
sS'stab'
p3971
I4
sS'nintendo'
p3972
I1
sS'appoint'
p3973
I1
sS'spectacl'
p3974
I3
sS'massacr'
p3975
I6
sS'atheist'
p3976
I1
sS'portion'
p3977
I5
sS'15-20'
p3978
I1
sS'"the'
p3979
I5
sS'simpson'
p3980
I5
sS'pardon'
p3981
I1
sS'aiden'
p3982
I1
sS'whoopi'
p3983
I2
sS'protest'
p3984
I1
sS'asian'
p3985
I5
sS'captain'
p3986
I3
sS'whoope'
p3987
I1
sS'schmuck'
p3988
I2
sS'whose'
p3989
I5
sS'accus'
p3990
I1
sS'accur'
p3991
I6
sS'sorri'
p3992
I56
sS'buddi'
p3993
I6
sS'kidman'
p3994
I8
sS'aux'
p3995
I1
sS'kudo'
p3996
I2
sS'appal'
p3997
I6
sS'void'
p3998
I5
sS'voic'
p3999
I12
sS'smack'
p4000
I4
sS'govern'
p4001
I4
sS'cemetari'
p4002
I1
sS'appar'
p4003
I22
sS'low-budget'
p4004
I3
sS'low-key'
p4005
I2
sS'shawshank'
p4006
I1
sS'vast'
p4007
I2
sS'oscar-what'
p4008
I1
sS'me-it'
p4009
I1
sS'samara'
p4010
I1
sS'upsid'
p4011
I1
sS'diseas'
p4012
I2
sS'kidnap'
p4013
I3
sS'quill'
p4014
I1
sS'even'
p4015
I145
sS'neo'
p4016
I3
sS'nej'
p4017
I1
sS'wreck'
p4018
I6
sS'panama'
p4019
I2
sS'asid'
p4020
I16
sS'while'
p4021
I21
sS'mocumentari'
p4022
I1
sS'new'
p4023
I53
sS'net'
p4024
I1
sS'ever'
p4025
I51
sS'meg'
p4026
I4
sS'behavior'
p4027
I5
sS'intrest'
p4028
I1
sS'mel'
p4029
I16
sS'never'
p4030
I69
sS'drew'
p4031
I8
sS'met'
p4032
I1
sS'munson'
p4033
I1
sS'voter'
p4034
I2
sS'100'
p4035
I10
sS"aren't"
p4036
I12
sS'interpret'
p4037
I1
sS'seduc'
p4038
I1
sS'goldi'
p4039
I2
sS'dri'
p4040
I6
sS'jame'
p4041
I16
sS'omar'
p4042
I1
sS'permit'
p4043
I1
sS'california'
p4044
I1
sS'dre'
p4045
I1
sS'jami'
p4046
I1
sS'nineti'
p4047
I1
sS'campaign'
p4048
I1
sS'gimm'
p4049
I2
sS'latifah'
p4050
I4
sS'avenu'
p4051
I1
sS'moral'
p4052
I14
sS'historicali'
p4053
I1
sS'scientif'
p4054
I1
sS'instabl'
p4055
I1
sS'immit'
p4056
I1
sS'reguard'
p4057
I1
sS'lame-ass'
p4058
I1
sS'burkittsvill'
p4059
I1
sS'leaki'
p4060
I1
sS'movie-'
p4061
I1
sS'call'
p4062
I23
sS'calm'
p4063
I1
sS'typo'
p4064
I1
sS'recommend'
p4065
I35
sS'type'
p4066
I25
sS'tell'
p4067
I67
sS'calf'
p4068
I1
sS'mekhi'
p4069
I1
sS'f---er'
p4070
I1
sS'oscar'
p4071
I17
sS'warp'
p4072
I3
sS'warn'
p4073
I15
sS'dogma'
p4074
I1
sS'warm'
p4075
I4
sS'adult'
p4076
I12
sS'ward'
p4077
I1
sS'spurlock'
p4078
I2
sS'electron'
p4079
I1
sS'room'
p4080
I12
sS'roof'
p4081
I3
sS'unemot'
p4082
I1
sS'akin'
p4083
I1
sS'root'
p4084
I6
sS'"dirty"'
p4085
I1
sS'give'
p4086
I57
sS'climax'
p4087
I4
sS'cursori'
p4088
I1
sS'pleeeeeeeeeas'
p4089
I1
sS'freshen'
p4090
I1
sS'quot'
p4091
I1
sS'polic'
p4092
I5
sS'stroy'
p4093
I1
sS'silverston'
p4094
I1
sS'answer'
p4095
I1
sS'polit'
p4096
I17
sS'mean-natur'
p4097
I1
sS'substanc'
p4098
I7
sS'lesbian'
p4099
I3
sS'stimpi'
p4100
I1
sS'attempt'
p4101
I42
sS'lightsab'
p4102
I1
sS'noooo'
p4103
I1
sS'confeder'
p4104
I2
sS'wus'
p4105
I1
sS'banger'
p4106
I1
sS'fetus'
p4107
I1
sS'deck'
p4108
I1
sS'wuz'
p4109
I1
sS'gettysburg'
p4110
I2
sS'murray'
p4111
I6
sS'mumbl'
p4112
I1
sS'oswald'
p4113
I1
sS'naturalist'
p4114
I1
sS'gentl'
p4115
I1
sS'bigalow'
p4116
I1
sS'furlong'
p4117
I1
sS'improvis'
p4118
I1
sS','
p4119
I312
sS'crew'
p4120
I4
sS'better'
p4121
I135
sS'persist'
p4122
I1
sS'schmidt'
p4123
I1
sS'within"'
p4124
I1
sS'anim'
p4125
I30
sS'therapi'
p4126
I2
sS'promin'
p4127
I2
sS'arsnic'
p4128
I1
sS'promis'
p4129
I6
sS'aaaarghhhh'
p4130
I1
sS'downright'
p4131
I5
sS'frequently-us'
p4132
I1
sS'meat'
p4133
I2
sS'sleepless'
p4134
I1
sS'bonk'
p4135
I1
sS'luca'
p4136
I8
sS'went'
p4137
I62
sS'oblig'
p4138
I1
sS'luci'
p4139
I4
sS'bone'
p4140
I5
sS'bond'
p4141
I13
sS'klump'
p4142
I1
sS'awri'
p4143
I1
sS'navi'
p4144
I2
sS'enorm'
p4145
I2
sS'b-grade'
p4146
I2
sS'taught'
p4147
I2
sS'forgot'
p4148
I4
sS'dawn'
p4149
I4
sS'incomprehens'
p4150
I2
sS'contend'
p4151
I1
sS'dime'
p4152
I1
sS'waaaaaa'
p4153
I1
sS'content'
p4154
I13
sS'rewrit'
p4155
I1
sS'contens'
p4156
I1
sS'sluggish'
p4157
I1
sS'interset'
p4158
I1
sS'paen'
p4159
I1
sS'f--k'
p4160
I1
sS'situat'
p4161
I6
sS'infin'
p4162
I1
sS'redempt'
p4163
I2
sS'hollyood'
p4164
I1
sS'jackman'
p4165
I1
sS'mistress'
p4166
I1
sS'cutesi'
p4167
I1
sS'beatti'
p4168
I1
sS'sceen'
p4169
I2
sS'loui'
p4170
I1
sS'isn'
p4171
I1
sS'bankrol'
p4172
I2
sS'loud'
p4173
I9
sS'stewart'
p4174
I1
sS'enjoy'
p4175
I57
sS'playwright'
p4176
I1
sS'twenty-two'
p4177
I1
sS'sucicid'
p4178
I1
sS'grade'
p4179
I9
sS'hoot'
p4180
I1
sS'hook'
p4181
I3
sS'unlik'
p4182
I12
sS'abandan'
p4183
I1
sS'definat'
p4184
I2
sS'agre'
p4185
I29
sS'hood'
p4186
I1
sS'guiltier'
p4187
I1
sS'sometim'
p4188
I7
sS'starfleet'
p4189
I1
sS'brainwash'
p4190
I3
sS'hollywood'
p4191
I62
sS'enjot'
p4192
I1
sS'obnoxi'
p4193
I14
sS'actulli'
p4194
I1
sS'somewhat'
p4195
I12
sS'helen'
p4196
I6
sS'paint-by-numb'
p4197
I1
sS'trippl'
p4198
I1
sS'trippi'
p4199
I1
sS'charcter'
p4200
I1
sS'spoiler'
p4201
I4
sS'silli'
p4202
I28
sS'affront'
p4203
I1
sS'afterbirth'
p4204
I2
sS'exorcist'
p4205
I6
sS'cellphon'
p4206
I1
sS'nerdiest'
p4207
I1
sS'windowdress'
p4208
I1
sS'matter'
p4209
I18
sS'prankster'
p4210
I1
sS'mini'
p4211
I1
sS'out-act'
p4212
I1
sS'seep'
p4213
I1
sS'modern'
p4214
I21
sS'mind'
p4215
I39
sS'mine'
p4216
I3
sS'synopt'
p4217
I1
sS'7th'
p4218
I1
sS'seen'
p4219
I214
sS'seem'
p4220
I31
sS'churn'
p4221
I6
sS'seek'
p4222
I6
sS'thornton'
p4223
I2
sS'kimba'
p4224
I1
sS'sleeper'
p4225
I1
sS'power-hungri'
p4226
I1
sS'tyo'
p4227
I1
sS'farenheight'
p4228
I1
sS'marin'
p4229
I1
sS'mario'
p4230
I3
sS'regular'
p4231
I3
sS'shamalyan'
p4232
I1
sS'tradit'
p4233
I2
sS'pinoccio'
p4234
I1
sS'don'
p4235
I5
sS'doo'
p4236
I5
sS'alarm'
p4237
I1
sS'm'
p4238
I7
sS'dog'
p4239
I20
sS'doe'
p4240
I82
sS'digress'
p4241
I1
sS'hair-cut'
p4242
I1
sS'mushi'
p4243
I1
sS'+'
p4244
I7
sS'ashor'
p4245
I1
sS'beavi'
p4246
I1
sS'kruger'
p4247
I2
sS'assclown'
p4248
I1
sS'nevada'
p4249
I1
sS'despit'
p4250
I14
sS'acquir'
p4251
I1
sS'despis'
p4252
I1
sS'pledg'
p4253
I2
sS'explain'
p4254
I19
sS'sugar'
p4255
I3
sS'despic'
p4256
I1
sS'gangsta'
p4257
I1
sS'chalic'
p4258
I1
sS'patter'
p4259
I1
sS'stop'
p4260
I38
sS'coast'
p4261
I1
sS'orgi'
p4262
I1
sS'mean-sprit'
p4263
I1
sS'parachut'
p4264
I1
sS'apostl'
p4265
I1
sS'bat'
p4266
I2
sS'bar'
p4267
I6
sS'sacrific'
p4268
I1
sS'disco'
p4269
I1
sS'19'
p4270
I2
sS'extremley'
p4271
I2
sS'unnecesari'
p4272
I1
sS'liberti'
p4273
I2
sS'sinker'
p4274
I1
sS'ban'
p4275
I3
sS'bah'
p4276
I1
sS'vampir'
p4277
I7
sS'armageddon'
p4278
I2
sS'disel'
p4279
I1
sS'juliet'
p4280
I2
sS'pete'
p4281
I3
sS'00'
p4282
I5
sS'said'
p4283
I52
sS"there'd"
p4284
I1
sS'duff'
p4285
I2
sS'05'
p4286
I1
sS'scrap'
p4287
I1
sS'1800s'
p4288
I1
sS'attribut'
p4289
I1
sS'warrior'
p4290
I2
sS'omg'
p4291
I4
sS'dumber'
p4292
I8
sS'vitamin'
p4293
I1
sS'aaliyah'
p4294
I1
sS'motta'
p4295
I1
sS'cousin'
p4296
I2
sS'against'
p4297
I5
sS'scuba'
p4298
I1
sS'und'
p4299
I1
sS'height'
p4300
I1
sS'foray'
p4301
I1
sS'x-file'
p4302
I2
sS'sam'
p4303
I3
sS'frist'
p4304
I1
sS'three'
p4305
I20
sS'erect'
p4306
I2
sS'specul'
p4307
I1
sS'trigger'
p4308
I1
sS'interest'
p4309
I29
sS'basic'
p4310
I21
sS'akroyd'
p4311
I1
sS'idol'
p4312
I3
sS'threw'
p4313
I2
sS'deeper'
p4314
I1
sS'suppress'
p4315
I1
sS'sooooo'
p4316
I2
sS'anti-arab'
p4317
I1
sS'retel'
p4318
I1
sS'unpopular'
p4319
I3
sS'"romeo'
p4320
I1
sS'dectect'
p4321
I1
sS'tank'
p4322
I3
sS'servic'
p4323
I1
sS'coltran'
p4324
I1
sS'near'
p4325
I26
sS'motorist'
p4326
I1
sS'occas'
p4327
I2
sS'settler'
p4328
I1
sS'spawn'
p4329
I1
sS'ix'
p4330
I1
sS'seven'
p4331
I4
sS'cane'
p4332
I1
sS'mexico'
p4333
I3
sS'iq'
p4334
I9
sS'is'
p4335
I367
sS'it'
p4336
I739
sS'iv'
p4337
I1
sS'ii'
p4338
I10
sS'shame'
p4339
I8
sS'cant'
p4340
I12
sS'catchphras'
p4341
I1
sS'im'
p4342
I15
sS'in'
p4343
I227
sS'id'
p4344
I6
sS'disappear'
p4345
I4
sS'if'
p4346
I174
sS'grown'
p4347
I5
sS'receiv'
p4348
I7
sS"your'"
p4349
I1
sS'make'
p4350
I325
sS'80s'
p4351
I2
sS'bacaus'
p4352
I1
sS'elli'
p4353
I4
sS'seanbryson'
p4354
I1
sS'unicorn'
p4355
I1
sS'overt'
p4356
I1
sS'overs'
p4357
I1
sS'overr'
p4358
I51
sS'kid'
p4359
I80
sS'qualif'
p4360
I1
sS'romp'
p4361
I1
sS'notr'
p4362
I1
sS'rome'
p4363
I2
sS'pandora'
p4364
I1
sS'portenti'
p4365
I1
sS'left'
p4366
I58
sS'yeh'
p4367
I1
sS'identifi'
p4368
I2
sS'just'
p4369
I415
sS'charlott'
p4370
I1
sS'yea'
p4371
I5
sS'nowaday'
p4372
I4
sS'unfair'
p4373
I1
sS'slutti'
p4374
I2
sS'psych'
p4375
I2
sS'human'
p4376
I30
sS'yep'
p4377
I1
sS'yes'
p4378
I22
sS'cretin'
p4379
I2
sS'whitak'
p4380
I1
sS'yet'
p4381
I20
sS'languag'
p4382
I13
sS'legion'
p4383
I2
sS'royal'
p4384
I1
sS'sensat'
p4385
I1
sS'save'
p4386
I76
sS'adress'
p4387
I1
sS'opt'
p4388
I1
sS'mcdormand'
p4389
I1
sS'kryptic'
p4390
I1
sS'vanessa'
p4391
I1
sS'purchas'
p4392
I1
sS'disneyfi'
p4393
I1
sS'vaniti'
p4394
I1
sS'background'
p4395
I5
sS'illiter'
p4396
I1
sS'athlet'
p4397
I1
sS'airhead'
p4398
I5
sS'nudg'
p4399
I1
sS'nude'
p4400
I3
sS'negat'
p4401
I14
sS'digniti'
p4402
I1
sS'live-act'
p4403
I1
sS'unnecessari'
p4404
I5
sS'www'
p4405
I4
sS'dean'
p4406
I2
sS'squander'
p4407
I2
sS'deal'
p4408
I12
sS'disord'
p4409
I2
sS'deaf'
p4410
I1
sS'grodin'
p4411
I2
sS'dead'
p4412
I40
sS'intern'
p4413
I3
sS'intoxc'
p4414
I1
sS'dear'
p4415
I6
sS'wwi'
p4416
I1
sS'purti'
p4417
I1
sS'insensit'
p4418
I1
sS'suckiest'
p4419
I1
sS'normal'
p4420
I10
sS'good-look'
p4421
I1
sS'midler'
p4422
I1
sS'creatur'
p4423
I3
sS'astin'
p4424
I1
sS'ww2'
p4425
I2
sS'burn'
p4426
I14
sS'buri'
p4427
I1
sS'jester'
p4428
I1
sS'winona'
p4429
I7
sS'squeamish'
p4430
I2
sS'protagonist'
p4431
I5
sS'promot'
p4432
I10
sS'dragonbal'
p4433
I1
sS'super'
p4434
I6
sS'tyres'
p4435
I1
sS'innuendo'
p4436
I1
sS'badili'
p4437
I1
sS'scenari'
p4438
I1
sS'cliche'
p4439
I1
sS'afternoon'
p4440
I3
sS'commit'
p4441
I4
sS'1990i'
p4442
I1
sS'contriv'
p4443
I13
sS'missus'
p4444
I1
sS'lier'
p4445
I1
sS'overus'
p4446
I3
sS'imit'
p4447
I4
sS'polakski'
p4448
I1
sS'editor'
p4449
I2
sS'etho'
p4450
I1
sS'prettili'
p4451
I2
sS'form'
p4452
I8
sS'forc'
p4453
I27
sS'batman'
p4454
I5
sS'forg'
p4455
I1
sS'ford'
p4456
I9
sS'synonym'
p4457
I1
sS'tv-g'
p4458
I2
sS'fort'
p4459
I1
sS'isra'
p4460
I1
sS'daddi'
p4461
I7
sS'surpriz'
p4462
I1
sS'unrel'
p4463
I2
sS'propaganda'
p4464
I15
sS'featur'
p4465
I20
sS'shin'
p4466
I1
sS'classic'
p4467
I33
sS'toss'
p4468
I3
sS'drive'
p4469
I12
sS'tosh'
p4470
I1
sS'bogart'
p4471
I1
sS'glanc'
p4472
I2
sS'die-'
p4473
I1
sS'die"'
p4474
I1
sS'ship'
p4475
I13
sS'arnaz'
p4476
I1
sS'excel'
p4477
I15
sS'venison'
p4478
I1
sS'matur'
p4479
I2
sS'felt'
p4480
I33
sS'youpatheticfool'
p4481
I1
sS'diet'
p4482
I1
sS'frodo'
p4483
I1
sS'fell'
p4484
I40
sS'stockad'
p4485
I1
sS'gerog'
p4486
I1
sS'weekend'
p4487
I1
sS'russo'
p4488
I1
sS'derail'
p4489
I1
sS'grief'
p4490
I3
sS'femal'
p4491
I13
sS'midevil'
p4492
I1
sS'allright'
p4493
I1
sS'moviehous'
p4494
I1
sS'jackel'
p4495
I1
sS'preambl'
p4496
I1
sS'pseudo'
p4497
I2
sS'jacket'
p4498
I1
sS'gorilla'
p4499
I1
sS'ignor'
p4500
I11
sS'teeth'
p4501
I6
sS'meander'
p4502
I3
sS'sooooooooooooooooooooooooooo'
p4503
I1
sS'befriend'
p4504
I1
sS'skip'
p4505
I12
sS'cking'
p4506
I1
sS'skit'
p4507
I1
sS'invent'
p4508
I2
sS'laura'
p4509
I1
sS'mild'
p4510
I4
sS'mile'
p4511
I7
sS'over-us'
p4512
I2
sS'skin'
p4513
I6
sS'mill'
p4514
I1
sS'seller'
p4515
I3
sS'milk'
p4516
I2
sS'bobbybo'
p4517
I1
sS'hound-dog'
p4518
I1
sS'show'
p4519
I43
sS'father'
p4520
I14
sS'0'
p4521
I12
sS'a-list'
p4522
I2
sS'me'
p4523
I107
sS'sappi'
p4524
I4
sS'sci-fi'
p4525
I23
sS'yeast'
p4526
I1
sS'lynch'
p4527
I1
sS'1995'
p4528
I1
sS'mcconaughi'
p4529
I1
sS'wore'
p4530
I1
sS'dil'
p4531
I1
sS'dim'
p4532
I2
sS'honeyman-pinhead'
p4533
I1
sS'did'
p4534
I173
sS'die'
p4535
I46
sS'dig'
p4536
I2
sS'democrat'
p4537
I1
sS'magnet'
p4538
I1
sS'mm'
p4539
I1
sS'round'
p4540
I2
sS'dis'
p4541
I2
sS'cgi'
p4542
I8
sS'demigogu'
p4543
I1
sS'asham'
p4544
I15
sS'worn'
p4545
I1
sS'hazzard'
p4546
I2
sS'yoda'
p4547
I1
sS'sabertooth'
p4548
I1
sS'filler'
p4549
I2
sS'erf'
p4550
I1
sS'suspect'
p4551
I3
sS'hand-to-hand'
p4552
I1
sS'addl'
p4553
I1
sS'mp'
p4554
I1
sS'hummer'
p4555
I1
sS'deriv'
p4556
I1
sS'asault'
p4557
I1
sS'clerk'
p4558
I2
sS'makeup'
p4559
I7
sS'french'
p4560
I7
sS'travolta'
p4561
I13
sS'detest'
p4562
I2
sS'tangent'
p4563
I1
sS'deceit'
p4564
I2
sS'coincid'
p4565
I1
sS'easton'
p4566
I3
sS'wait'
p4567
I40
sS'box'
p4568
I14
sS'boy'
p4569
I30
sS'hbo'
p4570
I6
sS'insan'
p4571
I9
sS'teribl'
p4572
I1
sS'invit'
p4573
I1
sS'bop'
p4574
I1
sS'shift'
p4575
I1
sS'bring-up'
p4576
I1
sS'shooter'
p4577
I1
sS'boo'
p4578
I1
sS'bratti'
p4579
I1
sS'extrem'
p4580
I44
sS'bob'
p4581
I10
sS'kauffman'
p4582
I1
sS'elect'
p4583
I2
sS'destoy'
p4584
I1
sS'eccentr'
p4585
I2
sS'franci'
p4586
I2
sS'eyebal'
p4587
I1
sS'ariel'
p4588
I1
sS'saddl'
p4589
I1
sS'univers'
p4590
I6
sS'dude'
p4591
I13
sS'everybodi'
p4592
I5
sS'ahhh'
p4593
I1
sS'sharpen'
p4594
I1
sS'thru'
p4595
I1
sS'pinchfac'
p4596
I1
sS'ummm'
p4597
I1
sS'oop'
p4598
I1
sS'savior'
p4599
I1
sS'amelia'
p4600
I1
sS'effort'
p4601
I16
sS'tokyo'
p4602
I1
sS'unimaginativli'
p4603
I1
sS'flu'
p4604
I1
sS'soul'
p4605
I10
sS'fli'
p4606
I13
sS'wallet'
p4607
I2
sS'sour'
p4608
I1
sS'9th'
p4609
I1
sS'sky'
p4610
I1
sS'claim'
p4611
I9
sS'favourit'
p4612
I2
sS'fabul'
p4613
I1
sS'cantidad'
p4614
I1
sS'predict'
p4615
I54
sS'reynold'
p4616
I1
sS'agent'
p4617
I7
sS'crazi'
p4618
I20
sS'agenc'
p4619
I1
sS'craze'
p4620
I2
sS'pink'
p4621
I3
sS'definatley'
p4622
I1
sS'till'
p4623
I4
sS'sunday'
p4624
I4
sS'emotionless'
p4625
I1
sS'sword'
p4626
I2
sS'trollop'
p4627
I2
sS'existentialist'
p4628
I1
sS'snf'
p4629
I1
sS'map'
p4630
I1
sS'144'
p4631
I1
sS'mar'
p4632
I2
sS'sorority-mad'
p4633
I1
sS'tarntino-lik'
p4634
I1
sS'may'
p4635
I19
sS'snl'
p4636
I6
sS'membership'
p4637
I2
sS'mad'
p4638
I9
sS'crappiest'
p4639
I1
sS'underscor'
p4640
I1
sS'grow'
p4641
I8
sS'man'
p4642
I65
sS'close-up'
p4643
I1
sS'aimless'
p4644
I1
sS'omen'
p4645
I2
sS'repuls'
p4646
I3
sS'disembowel'
p4647
I1
sS'q'
p4648
I3
sS'switch'
p4649
I2
sS'jail'
p4650
I1
sS'african'
p4651
I2
sS'tall'
p4652
I1
sS'talk'
p4653
I46
sS'cute'
p4654
I14
sS'dojo'
p4655
I1
sS'rabbl'
p4656
I1
sS'graduat'
p4657
I5
sS'shake'
p4658
I3
sS'spinoff'
p4659
I1
sS'equip'
p4660
I3
sS'shaki'
p4661
I2
sS'pointer'
p4662
I1
sS'interspers'
p4663
I1
sS'group'
p4664
I13
sS'thank'
p4665
I32
sS'dysfunct'
p4666
I1
sS'maid'
p4667
I1
sS'harold-insan'
p4668
I1
sS'main'
p4669
I28
sS'foulest'
p4670
I1
sS'ya-ya'
p4671
I1
sS'financi'
p4672
I1
sS'killer'
p4673
I18
sS'shatter'
p4674
I2
sS'sooner'
p4675
I3
sS'tucker'
p4676
I1
sS'interview'
p4677
I5
sS'agoni'
p4678
I1
sS'teller'
p4679
I2
sS'possess'
p4680
I3
sS'sympath'
p4681
I1
sS'flont'
p4682
I1
sS'oliv'
p4683
I3
sS'careless'
p4684
I1
sS'rock'
p4685
I21
sS'refrenc'
p4686
I1
sS'harken'
p4687
I1
sS'continu'
p4688
I13
sS'girl'
p4689
I55
sS'canada'
p4690
I2
sS'announc'
p4691
I1
sS'jackson'
p4692
I6
sS'3rd'
p4693
I3
sS'rampag'
p4694
I1
sS'moviemak'
p4695
I1
sS'daltri'
p4696
I1
sS'twelv'
p4697
I1
sS'christain'
p4698
I1
sS'blubber'
p4699
I1
sS'correct'
p4700
I10
sS'romanc'
p4701
I9
sS'goth'
p4702
I1
sS'earlier'
p4703
I4
sS'monster'
p4704
I5
sS'romano'
p4705
I3
sS'dutchvu'
p4706
I1
sS'zombi'
p4707
I7
sS'romant'
p4708
I9
sS'triangl'
p4709
I4
sS'cough'
p4710
I2
sS'shroomwoman'
p4711
I2
sS'cheerlead'
p4712
I6
sS'oooeeeeeeeeeeeeeeeeeeeeeeeeeeee'
p4713
I1
sS'thing'
p4714
I197
sS'nuff'
p4715
I3
sS'think'
p4716
I220
sS'frequent'
p4717
I1
sS'first'
p4718
I99
sS'carri'
p4719
I7
sS'lone'
p4720
I3
sS'rachel'
p4721
I2
sS'cheesi'
p4722
I23
sS'long'
p4723
I101
sS'oppos'
p4724
I2
sS'thoughtless'
p4725
I1
sS'fieri'
p4726
I1
sS'slept'
p4727
I2
sS'unscari'
p4728
I1
sS'soooooooooooooooooooooooooooooooo'
p4729
I1
sS'demonstr'
p4730
I1
sS'escort'
p4731
I1
sS'penelop'
p4732
I1
sS'murki'
p4733
I2
sS'mermaid'
p4734
I1
sS'subplot'
p4735
I2
sS'attroc'
p4736
I1
sS'hillari'
p4737
I3
sS'broadcast'
p4738
I1
sS'butt'
p4739
I5
sS'11'
p4740
I10
sS'10'
p4741
I27
sS'13'
p4742
I2
sS'12'
p4743
I12
sS'15'
p4744
I20
sS'14'
p4745
I1
sS'16'
p4746
I4
sS'grammer'
p4747
I1
sS'18'
p4748
I4
sS'gotta'
p4749
I3
sS'snoozer'
p4750
I1
sS"1'"
p4751
I1
sS'were'
p4752
I53
sS'coconut'
p4753
I1
sS'conspiraci'
p4754
I2
sS'complaint-'
p4755
I1
sS'sult'
p4756
I1
sS'preston'
p4757
I1
sS'dash'
p4758
I2
sS'himself'
p4759
I24
sS'comedian'
p4760
I4
sS'nazi'
p4761
I5
sS'kevin'
p4762
I16
sS'bash'
p4763
I1
sS'squar'
p4764
I2
sS'advic'
p4765
I7
sS'wretch'
p4766
I12
sS'advis'
p4767
I2
sS'shocker'
p4768
I2
sS'"scary"'
p4769
I1
sS'channel'
p4770
I5
sS'incoher'
p4771
I1
sS'200'
p4772
I2
sS'pain'
p4773
I29
sS'norman'
p4774
I2
sS'formulat'
p4775
I1
sS'bett'
p4776
I2
sS'track'
p4777
I5
sS'trach'
p4778
I1
sS'sundanc'
p4779
I1
sS'paid'
p4780
I19
sS'exclus'
p4781
I1
sS'tract'
p4782
I1
sS'pair'
p4783
I1
sS'cuban'
p4784
I2
sS'pathet'
p4785
I57
sS'angst'
p4786
I4
sS'shop'
p4787
I3
sS'shot'
p4788
I30
sS'ridcioul'
p4789
I1
sS'rhetor'
p4790
I1
sS'ubiquit'
p4791
I1
sS'corner'
p4792
I2
sS'takin'
p4793
I1
sS'contemporari'
p4794
I2
sS'amateurish'
p4795
I2
sS'dice'
p4796
I1
sS'travesti'
p4797
I10
sS'dick'
p4798
I4
sS'behind'
p4799
I3
sS'black'
p4800
I37
sS'enthusiasm'
p4801
I1
sS'revisionist'
p4802
I1
sS'offici'
p4803
I1
sS'sensate'
p4804
I1
sS'get'
p4805
I127
sS'midriff'
p4806
I1
sS'8-11'
p4807
I1
sS'gee'
p4808
I9
sS'shroowoman'
p4809
I1
sS'gen'
p4810
I1
sS'gem'
p4811
I2
sS'guilt-ridden'
p4812
I1
sS'stupit'
p4813
I1
sS'frampton'
p4814
I2
sS'busiest'
p4815
I1
sS'unsubl'
p4816
I1
sS'stupid'
p4817
I221
sS'nostril'
p4818
I1
sS'vito'
p4819
I1
sS'summari'
p4820
I2
sS'trilog'
p4821
I4
sS'branagh'
p4822
I1
sS'ricci'
p4823
I1
sS'singer"'
p4824
I1
sS'menad'
p4825
I1
sS'menac'
p4826
I3
sS'seat'
p4827
I5
sS'sean'
p4828
I9
sS'wonder'
p4829
I49
sS'infinit'
p4830
I1
sS'befuddl'
p4831
I1
sS'enough'
p4832
I14
sS'-dastard'
p4833
I1
sS'ten-minut'
p4834
I1
sS'across'
p4835
I1
sS'parent'
p4836
I12
sS'brutalis'
p4837
I1
sS'at-tim'
p4838
I1
sS'meritorus'
p4839
I1
sS'jr'
p4840
I3
sS'thinly-veil'
p4841
I1
sS'tub'
p4842
I3
sS'lopez'
p4843
I6
sS'tug'
p4844
I1
sS'jfk'
p4845
I1
sS'stinker'
p4846
I8
sS'foulist'
p4847
I1
sS'muniz'
p4848
I1
sS'improb'
p4849
I1
sS'epitom'
p4850
I2
sS'tour'
p4851
I1
sS'tout'
p4852
I1
sS'improv'
p4853
I4
sS'charract'
p4854
I1
sS'among'
p4855
I2
sS'soppos'
p4856
I1
sS'guniea'
p4857
I1
sS'cancer'
p4858
I1
sS'custodi'
p4859
I2
sS'cancel'
p4860
I2
sS'wal-mart"'
p4861
I1
sS'ultim'
p4862
I3
sS'suicid'
p4863
I6
sS'mark'
p4864
I13
sS'dadpan'
p4865
I1
sS'arti'
p4866
I1
sS'barri'
p4867
I2
sS'shmack'
p4868
I1
sS'salaci'
p4869
I1
sS'oust'
p4870
I1
sS'hypocrisi'
p4871
I2
sS'wake'
p4872
I4
sS'odyssey'
p4873
I1
sS'those'
p4874
I45
sS'sound'
p4875
I20
sS'cheapquel'
p4876
I1
sS'braff'
p4877
I1
sS'invok'
p4878
I2
sS'ratchet'
p4879
I1
sS'cock'
p4880
I1
sS'destin'
p4881
I3
sS'strain'
p4882
I1
sS'monoloug'
p4883
I1
sS'sudden'
p4884
I10
sS'outrag'
p4885
I2
sS'everyday'
p4886
I1
sS'par'
p4887
I3
sS'pat'
p4888
I1
sS'harsh'
p4889
I1
sS'doctor'
p4890
I2
sS'pay'
p4891
I26
sS'audienc'
p4892
I29
sS'same'
p4893
I29
sS'speech'
p4894
I8
sS'appaul'
p4895
I4
sS'pam'
p4896
I2
sS'pan'
p4897
I6
sS'oil'
p4898
I4
sS'assist'
p4899
I1
sS'capabl'
p4900
I2
sS'disguis'
p4901
I5
sS'trekki'
p4902
I2
sS'conufus'
p4903
I1
sS'shopworn'
p4904
I1
sS'drain'
p4905
I2
sS'parodi'
p4906
I10
sS'pronounc'
p4907
I1
sS'mann'
p4908
I1
sS'titl'
p4909
I30
sS'lysol'
p4910
I1
sS'execut'
p4911
I9
sS'money'
p4912
I138
sS'primetim'
p4913
I1
sS'wifey'
p4914
I1
sS'aspect'
p4915
I6
sS'flavor'
p4916
I1
sS'asleep-'
p4917
I1
sS'clueless'
p4918
I2
sS'parad'
p4919
I1
sS'mcdonald'
p4920
I3
sS'pile'
p4921
I11
sS'4'
p4922
I19
sS'wiseman'
p4923
I2
sS'pill'
p4924
I1
sS'grip'
p4925
I3
sS'jake'
p4926
I3
sS'blooooooodd'
p4927
I1
sS'mor'
p4928
I1
sS'chainsaw'
p4929
I5
sS'moo'
p4930
I1
sS'mom'
p4931
I8
sS'mob'
p4932
I1
sS'grim'
p4933
I1
sS'grin'
p4934
I1
sS'christina'
p4935
I4
sS'missing-'
p4936
I1
sS'juxtaposit'
p4937
I1
sS'unintintionali'
p4938
I1
sS'either'
p4939
I14
sS'hallelujah'
p4940
I1
sS'stinkeroo'
p4941
I1
sS'cabl'
p4942
I8
sS'witchcraft'
p4943
I2
sS'titan'
p4944
I6
sS'ascend'
p4945
I1
sS'adequ'
p4946
I2
sS'tatoo'
p4947
I1
sS'afflick'
p4948
I1
sS'sommer'
p4949
I1
sS'joan'
p4950
I1
sS'gross'
p4951
I21
sS'confirm'
p4952
I2
sS'doggi'
p4953
I1
sS'genious'
p4954
I1
sS'im2'
p4955
I1
sS'squabbl'
p4956
I1
sS'knife'
p4957
I1
sS'watchabl'
p4958
I5
sS'broker'
p4959
I1
sS'squall'
p4960
I1
sS'broken'
p4961
I2
sS'nermal'
p4962
I1
sS'raptor'
p4963
I1
sS'son-in-law'
p4964
I1
sS'island'
p4965
I3
sS'uh-uh'
p4966
I1
sS'roam'
p4967
I2
sS'road'
p4968
I5
sS'dagger'
p4969
I1
sS'scenery-chew'
p4970
I1
sS'coupon'
p4971
I1
sS'mari'
p4972
I9
sS'strip'
p4973
I2
sS'uptown'
p4974
I1
sS'story-lin'
p4975
I1
sS'totalitarian'
p4976
I1
sS'brute'
p4977
I1
sS'madder'
p4978
I1
sS'downey'
p4979
I1
sS'downer'
p4980
I3
sS'50-1'
p4981
I1
sS'pluh-leas'
p4982
I1
sS'gori'
p4983
I5
sS'gorm'
p4984
I1
sS'spice'
p4985
I2
sS'ludicr'
p4986
I8
sS'romantic'
p4987
I3
sS'possibl'
p4988
I44
sS"wasn't"
p4989
I73
sS'reinlist'
p4990
I1
sS'vhs'
p4991
I1
sS'unusu'
p4992
I2
sS'neill'
p4993
I1
sS'manuel'
p4994
I1
sS'deer'
p4995
I3
sS'deep'
p4996
I14
sS'general'
p4997
I17
sS'file'
p4998
I2
sS'cultur'
p4999
I6
sS'girlfriend'
p5000
I10
sS'deed'
p5001
I3
sS'proport'
p5002
I2
sS'flock'
p5003
I1
sS'film'
p5004
I401
sS'fill'
p5005
I9
sS'tedious'
p5006
I10
sS'again'
p5007
I24
sS'hybrid'
p5008
I1
sS'field'
p5009
I3
sS'air-sick'
p5010
I1
sS'astronaut'
p5011
I1
sS'brando'
p5012
I3
sS'shelter'
p5013
I1
sS'sequenc'
p5014
I13
sS'philisoph'
p5015
I1
sS'submarin'
p5016
I1
sS'chris'
p5017
I9
sS'mishmash'
p5018
I1
sS'bothersom'
p5019
I1
sS'network'
p5020
I2
sS'bombadil'
p5021
I1
sS'videotap'
p5022
I3
sS'downfal'
p5023
I1
sS'descript'
p5024
I5
sS'sewel'
p5025
I1
sS'hard-cor'
p5026
I1
sS'foul-mouth'
p5027
I1
sS'sewer'
p5028
I1
sS'u'
p5029
I6
sS'non-sens'
p5030
I1
sS'alright'
p5031
I6
sS'escap'
p5032
I6
sS'oral'
p5033
I2
sS'represent'
p5034
I4
sS'liar'
p5035
I4
sS'forget'
p5036
I12
sS'vile'
p5037
I1
sS'dollar'
p5038
I10
sS'sunk'
p5039
I3
sS'atlant'
p5040
I1
sS'liam'
p5041
I3
sS'children'
p5042
I24
sS'"mom"'
p5043
I1
sS'daniel'
p5044
I3
sS'hideous'
p5045
I2
sS'irrist'
p5046
I1
sS'godfath'
p5047
I2
sS'straightforward'
p5048
I1
sS'fals'
p5049
I8
sS'util'
p5050
I1
sS'scout'
p5051
I1
sS'fall'
p5052
I42
sS'wsa'
p5053
I1
sS'alien'
p5054
I17
sS'pre'
p5055
I2
sS'broderick'
p5056
I1
sS'saudi'
p5057
I1
sS'christ"'
p5058
I1
sS'zero'
p5059
I16
sS'disapoint'
p5060
I7
sS'lawyer'
p5061
I2
sS'well-act'
p5062
I1
sS'further'
p5063
I5
sS'misrepresent'
p5064
I1
sS'excit'
p5065
I23
sS'90s'
p5066
I1
sS'stood'
p5067
I3
sS'bullworth'
p5068
I1
sS'worthwhil'
p5069
I1
sS'abl'
p5070
I16
sS'diaz'
p5071
I4
sS'undevelop'
p5072
I2
sS'saruman'
p5073
I1
sS'garth'
p5074
I1
sS'90i'
p5075
I1
sS'devil-angel'
p5076
I1
sS'movement'
p5077
I7
sS"c'mon"
p5078
I2
sS'variat'
p5079
I2
sS'hayek'
p5080
I1
sS'sophist'
p5081
I1
sS'surfer'
p5082
I1
sS'ranger'
p5083
I2
sS'reeeeaaal'
p5084
I1
sS'stepford'
p5085
I2
sS'valu'
p5086
I14
sS'fatter'
p5087
I1
sS'search'
p5088
I2
sS'miseri'
p5089
I5
sS'geophys'
p5090
I1
sS'krank'
p5091
I1
sS'airport'
p5092
I1
sS'narrow'
p5093
I1
sS'barker'
p5094
I2
sS'africa'
p5095
I2
sS'busey'
p5096
I1
sS'sadist'
p5097
I1
sS'inappropri'
p5098
I1
sS'rican'
p5099
I1
sS'memor'
p5100
I3
sS'eye'
p5101
I18
sS'distinct'
p5102
I4
sS'tacki'
p5103
I2
sS'deaniac'
p5104
I1
sS'tackl'
p5105
I2
sS'puke'
p5106
I9
sS'poorly-act'
p5107
I1
sS'repetiti'
p5108
I1
sS'jive'
p5109
I2
sS'desir'
p5110
I7
sS'republician'
p5111
I1
sS"ain't"
p5112
I1
sS'bros'
p5113
I1
sS'particular'
p5114
I14
sS'magnific'
p5115
I2
sS'town'
p5116
I5
sS'dictat'
p5117
I2
sS'none'
p5118
I20
sS'hour'
p5119
I71
sS'hous'
p5120
I21
sS'remain'
p5121
I3
sS'dem'
p5122
I1
sS'sucki'
p5123
I1
sS'abandon'
p5124
I2
sS'dea'
p5125
I1
sS'dec'
p5126
I1
sS'explod'
p5127
I3
sS'shark'
p5128
I4
sS'vaudevill'
p5129
I1
sS'share'
p5130
I6
sS'kripk'
p5131
I1
sS'maguir'
p5132
I1
sS'"remake"'
p5133
I2
sS'explor'
p5134
I1
sS'explos'
p5135
I3
sS'robinson'
p5136
I1
sS'!'
p5137
I236
sS'awkward'
p5138
I2
sS'secur'
p5139
I2
sS'comfort'
p5140
I3
sS'amistad'
p5141
I1
sS'becuas'
p5142
I1
sS'needi'
p5143
I1
sS'needl'
p5144
I1
sS'raunch'
p5145
I1
sS'slow-mo'
p5146
I2
sS'rosanna'
p5147
I1
sS'associ'
p5148
I7
sS'bleah'
p5149
I1
sS'sli'
p5150
I1
sS'coat'
p5151
I2
sS'wobbl'
p5152
I1
sS'lloydd'
p5153
I1
sS'blunder'
p5154
I1
sS'coal'
p5155
I1
sS'ensembl'
p5156
I2
sS'surrealist'
p5157
I2
sS'clumsili'
p5158
I1
sS'psuedo-intellectu'
p5159
I1
sS'through'
p5160
I16
sS'suffer'
p5161
I11
sS'un-scari'
p5162
I2
sS'24'
p5163
I1
sS'25'
p5164
I7
sS'26'
p5165
I1
sS'20'
p5166
I24
sS'21'
p5167
I2
sS'22'
p5168
I1
sS'28'
p5169
I1
sS'bosom'
p5170
I2
sS'handheld'
p5171
I1
sS'late'
p5172
I3
sS"2'"
p5173
I1
sS'opposit'
p5174
I1
sS'penn'
p5175
I4
sS'eas'
p5176
I1
sS'peni'
p5177
I2
sS'goof'
p5178
I2
sS'good'
p5179
I329
sS'goos'
p5180
I1
sS'aka'
p5181
I1
sS'adventur'
p5182
I7
sS'complain'
p5183
I4
sS'limpet'
p5184
I1
sS'goofi'
p5185
I1
sS'wallac'
p5186
I1
sS'robbin'
p5187
I3
sS'mysteri'
p5188
I9
sS'easili'
p5189
I16
sS'permanent-parti'
p5190
I1
sS'reminisc'
p5191
I4
sS'idealog'
p5192
I1
sS'mental'
p5193
I13
sS'fish'
p5194
I8
sS'hard'
p5195
I56
sS'idea'
p5196
I57
sS'mongoloid'
p5197
I1
sS'energi'
p5198
I5
sS'admiss'
p5199
I1
sS'g-rat'
p5200
I3
sS'childish'
p5201
I7
sS'princ'
p5202
I1
sS'wwiii'
p5203
I1
sS'prinz'
p5204
I1
sS'print'
p5205
I2
sS'extraordinari'
p5206
I1
sS'faucet'
p5207
I2
sS'terroist'
p5208
I1
sS'prophet'
p5209
I1
sS'sitcom'
p5210
I3
sS'uber-geek'
p5211
I1
sS'dont'
p5212
I37
sS'exchang'
p5213
I1
sS'barbarian'
p5214
I2
sS'pop'
p5215
I14
sS'done'
p5216
I18
sS'campground'
p5217
I1
sS'razor'
p5218
I2
sS'symptom'
p5219
I1
sS'5th'
p5220
I1
sS'least'
p5221
I32
sS'paint'
p5222
I8
sS'180'
p5223
I1
sS'statement'
p5224
I5
sS'mama'
p5225
I1
sS'twenti'
p5226
I2
sS'too'
p5227
I63
sS'scantili'
p5228
I1
sS'park'
p5229
I14
sS'pari'
p5230
I4
sS'glycerin'
p5231
I1
sS'dentist'
p5232
I1
sS'appropri'
p5233
I3
sS'parr'
p5234
I1
sS'exposur'
p5235
I2
sS'b'
p5236
I9
sS'gotten'
p5237
I7
sS'avtak'
p5238
I1
sS'youth'
p5239
I5
sS'"facts"'
p5240
I1
sS'fixat'
p5241
I1
sS'tavolta'
p5242
I1
sS'vacant'
p5243
I2
sS'outta'
p5244
I2
sS'reunion'
p5245
I1
sS'awoken'
p5246
I1
sS'mountain'
p5247
I3
sS'built'
p5248
I1
sS'grusom'
p5249
I1
sS'click'
p5250
I3
sS'k2'
p5251
I2
sS'caesar'
p5252
I1
sS'build'
p5253
I7
sS'menopaus'
p5254
I1
sS'distribut'
p5255
I1
sS"li'l"
p5256
I1
sS'flute'
p5257
I1
sS'war-lov'
p5258
I1
sS'most'
p5259
I100
sS'highflyer'
p5260
I1
sS'charm'
p5261
I7
sS'charl'
p5262
I1
sS'charg'
p5263
I2
sS'kc'
p5264
I1
sS'pueril'
p5265
I2
sS'unfocus'
p5266
I2
sS'comdey'
p5267
I1
sS'sreenplay'
p5268
I1
sS'colonel'
p5269
I1
sS'witherspoon'
p5270
I3
sS'afghani'
p5271
I1
sS'downbeat'
p5272
I1
sS'strangeland'
p5273
I1
sS'fine'
p5274
I16
sS'find'
p5275
I28
sS'phooey'
p5276
I1
sS'giant'
p5277
I4
sS'disappoin'
p5278
I1
sS'nervous'
p5279
I1
sS'ruin'
p5280
I29
sS'poppin'
p5281
I2
sS'ebert'
p5282
I3
sS'schlockfest'
p5283
I1
sS'schartzeneg'
p5284
I1
sS'8'
p5285
I10
sS'villian'
p5286
I3
sS'luke'
p5287
I1
sS'ferrel'
p5288
I3
sS'express'
p5289
I8
sS'cheaper'
p5290
I3
sS'biddi'
p5291
I1
sS'breast'
p5292
I5
sS'uncomfort'
p5293
I1
sS'commentari'
p5294
I2
sS'common'
p5295
I9
sS'gospel'
p5296
I2
sS'californian'
p5297
I1
sS'vinc'
p5298
I1
sS'lion'
p5299
I4
sS'expert'
p5300
I2
sS'debas'
p5301
I1
sS'someth'
p5302
I92
sS'malkovich'
p5303
I3
sS'hold'
p5304
I18
sS'experi'
p5305
I17
sS'kangaroo'
p5306
I1
sS'altern'
p5307
I1
sS'freebird'
p5308
I1
sS'appreci'
p5309
I7
sS'oppress'
p5310
I4
sS'infam'
p5311
I1
sS'allarm'
p5312
I1
sS'shaman'
p5313
I2
sS'asthma'
p5314
I1
sS'eminem'
p5315
I2
sS'marilyn'
p5316
I1
sS'popul'
p5317
I2
sS'osborn'
p5318
I1
sS'subtitl'
p5319
I3
sS'alon'
p5320
I17
sS'foreign'
p5321
I6
sS'alot'
p5322
I17
sS'anti-war'
p5323
I1
sS'simpli'
p5324
I40
sS'elliot'
p5325
I1
sS'point'
p5326
I68
sS'pre-adolesc'
p5327
I1
sS'headachey'
p5328
I1
sS'ahhhhhhhhhhhhhhhhh'
p5329
I1
sS'zeta'
p5330
I1
sS'throughout'
p5331
I3
sS'ravag'
p5332
I1
sS'buffoneri'
p5333
I1
sS'secret'
p5334
I6
sS'ahhhh'
p5335
I1
sS'caribeean'
p5336
I1
sS'gentil'
p5337
I1
sS'exercis'
p5338
I3
sS'gay'
p5339
I11
sS'cyborg'
p5340
I1
sS'gas'
p5341
I3
sS'unnecessarili'
p5342
I1
sS'wannab'
p5343
I4
sS'kathi'
p5344
I3
sS'35mm'
p5345
I1
sS'understand'
p5346
I34
sS'whitney'
p5347
I1
sS'gag'
p5348
I11
sS'repetit'
p5349
I1
sS'chatter'
p5350
I1
sS'cruelti'
p5351
I4
sS'convers'
p5352
I2
sS'x-men'
p5353
I3
sS'fantas'
p5354
I1
sS'politician'
p5355
I2
sS'solid'
p5356
I3
sS'bill'
p5357
I11
sS'holocaust'
p5358
I4
sS'crutch'
p5359
I3
sS'fug'
p5360
I1
sS'paintbal'
p5361
I1
sS'fun'
p5362
I36
sS'graini'
p5363
I1
sS'everyon'
p5364
I48
sS'larger'
p5365
I2
sS'goodfella'
p5366
I1
sS'mystic'
p5367
I1
sS'itself'
p5368
I20
sS'centuri'
p5369
I3
sS'ludicri'
p5370
I2
sS'routin'
p5371
I3
sS'marqu'
p5372
I1
sS'ewe'
p5373
I1
sS'incarn'
p5374
I2
sS'itali'
p5375
I3
sS'ruth'
p5376
I1
sS'eww'
p5377
I1
sS'neutron'
p5378
I1
sS'yesterday'
p5379
I1
sS'hog-ti'
p5380
I1
sS'moment'
p5381
I40
sS'bulshit'
p5382
I1
sS'klaptrap'
p5383
I1
sS'frankenstien'
p5384
I1
sS'swish'
p5385
I1
sS'knowel'
p5386
I1
sS'functionari'
p5387
I1
sS'chemistri'
p5388
I17
sS'steller'
p5389
I1
sS'craven'
p5390
I2
sS'morrow'
p5391
I1
sS'1964'
p5392
I2
sS'werewolv'
p5393
I1
sS'y'
p5394
I1
sS'nolt'
p5395
I1
sS'tast'
p5396
I18
sS'spend'
p5397
I12
sS'howl'
p5398
I1
sS'explan'
p5399
I4
sS'yucki'
p5400
I3
sS'obscur'
p5401
I3
sS'shape'
p5402
I1
sS'thorough'
p5403
I1
sS'jumpsuit'
p5404
I1
sS'depriv'
p5405
I1
sS'cut'
p5406
I19
sS'cup'
p5407
I1
sS'sinist'
p5408
I2
sS'cuz'
p5409
I2
sS'cue'
p5410
I2
sS'ill-advis'
p5411
I1
sS'easter'
p5412
I2
sS'hater'
p5413
I1
sS'frenet'
p5414
I1
sS'midshow'
p5415
I1
sS'trueli'
p5416
I2
sS'big'
p5417
I79
sS'rebound'
p5418
I1
sS'judgement'
p5419
I3
sS'redeem'
p5420
I22
sS'bit'
p5421
I38
sS'blech'
p5422
I2
sS'creepier-th'
p5423
I1
sS'knock'
p5424
I11
sS'moriah'
p5425
I1
sS'semi'
p5426
I1
sS'glove'
p5427
I2
sS'flux'
p5428
I1
sS'latt'
p5429
I1
sS'foolish'
p5430
I3
sS'sequil'
p5431
I1
sS'scrip'
p5432
I2
sS'often'
p5433
I2
sS'30s'
p5434
I1
sS'back'
p5435
I17
sS'extremist'
p5436
I1
sS'martial'
p5437
I5
sS'mirror'
p5438
I2
sS'germani'
p5439
I1
sS'mckennitt'
p5440
I1
sS'scale'
p5441
I4
sS'montag'
p5442
I1
sS'pel'
p5443
I1
sS'lara'
p5444
I2
sS'larg'
p5445
I9
sS'bogus'
p5446
I2
sS'lard'
p5447
I1
sS'exager'
p5448
I2
sS'pee'
p5449
I1
sS'carpent'
p5450
I3
sS'epic'
p5451
I9
sS'reproduc'
p5452
I1
sS'nose'
p5453
I4
sS'ladder'
p5454
I1
sS'manichaean'
p5455
I1
sS'camerawork'
p5456
I3
sS'300'
p5457
I1
sS'oew'
p5458
I1
sS'fed'
p5459
I2
sS'patienc'
p5460
I1
sS'religeon'
p5461
I1
sS'crap'
p5462
I130
sS'crone'
p5463
I1
sS'impos'
p5464
I1
sS'3-rd'
p5465
I1
sS'gere'
p5466
I7
sS'drama'
p5467
I23
sS'blechh'
p5468
I1
sS'gambit'
p5469
I1
sS'ppl'
p5470
I1
sS'disminish'
p5471
I1
sS'high-qual'
p5472
I1
sS'jimmi'
p5473
I3
sS'steven'
p5474
I8
sS'atroci'
p5475
I11
sS'framer'
p5476
I1
sS'lesson'
p5477
I5
sS'characht'
p5478
I1
sS'inclus'
p5479
I1
sS'fictiti'
p5480
I1
sS'few'
p5481
I22
sS'whatso'
p5482
I1
sS'doll'
p5483
I4
sS'errand'
p5484
I1
sS'excruti'
p5485
I1
sS'includ'
p5486
I16
sS'forward'
p5487
I11
sS'implaus'
p5488
I2
sS'one-lin'
p5489
I1
sS'translat'
p5490
I6
sS'murphi'
p5491
I4
sS'watership'
p5492
I1
sS'carcatur'
p5493
I1
sS'planet'
p5494
I12
sS'remaind'
p5495
I1
sS'cathol'
p5496
I2
sS'constant'
p5497
I8
sS'curs'
p5498
I2
sS'metal'
p5499
I5
sS'utilis'
p5500
I1
sS'cure'
p5501
I3
sS'time--ful'
p5502
I1
sS'diector'
p5503
I1
sS'kirk'
p5504
I2
sS'harharharhar'
p5505
I1
sS"so-bad-it's-good"
p5506
I1
sS'lend'
p5507
I2
sS"wasen't"
p5508
I1
sS'lens'
p5509
I1
sS'whatdehay'
p5510
I1
sS'oedipus'
p5511
I1
sS'deserv'
p5512
I32
sS'mantel'
p5513
I1
sS'notion'
p5514
I3
sS'2002'
p5515
I1
sS'2003'
p5516
I4
sS'2000'
p5517
I2
sS'2001'
p5518
I4
sS'2004'
p5519
I1
sS'noon'
p5520
I1
sS'credenc'
p5521
I1
sS'jason'
p5522
I19
sS'exil'
p5523
I1
sS'privat'
p5524
I7
sS'drive-in'
p5525
I2
sS'sensit'
p5526
I3
sS'lunat'
p5527
I1
sS'becam'
p5528
I8
sS'over-commerci'
p5529
I1
sS'maryland'
p5530
I2
sS'non-commiss'
p5531
I1
sS'keyster'
p5532
I1
sS'desserv'
p5533
I1
sS'mous'
p5534
I1
sS'volum'
p5535
I1
sS'knight'
p5536
I2
sS'joel'
p5537
I1
sS'shock'
p5538
I22
sS'brangelina'
p5539
I1
sS'kinsmen'
p5540
I1
sS'havent'
p5541
I3
sS'coorper'
p5542
I1
sS'joey'
p5543
I1
sS'fortun'
p5544
I2
sS'crow'
p5545
I2
sS'clive'
p5546
I2
sS'crop'
p5547
I2
sS'leakag'
p5548
I1
sS'chicago'
p5549
I1
sS'resembl'
p5550
I3
sS'profan'
p5551
I25
sS'piper'
p5552
I1
sS'access'
p5553
I1
sS'raunch-fest'
p5554
I1
sS'3d'
p5555
I2
sS'nacho'
p5556
I1
sS'booooo'
p5557
I2
sS'irreplacealbl'
p5558
I1
sS'embattl'
p5559
I1
sS'arond'
p5560
I1
sS'bodi'
p5561
I13
sS'sink'
p5562
I9
sS'backstori'
p5563
I1
sS'hughjackman'
p5564
I1
sS'sinc'
p5565
I46
sS'mindset'
p5566
I2
sS'remark'
p5567
I5
sS'talent'
p5568
I47
sS'cera'
p5569
I1
sS'conceiv'
p5570
I2
sS'30'
p5571
I18
sS'36'
p5572
I1
sS'35'
p5573
I1
sS'resurrect'
p5574
I1
sS"prob'li"
p5575
I1
sS'climb'
p5576
I2
sS'honor'
p5577
I2
sS'ovat'
p5578
I1
sS'limp'
p5579
I3
sS'limb'
p5580
I1
sS'scandal'
p5581
I2
sS'cheesy-ass'
p5582
I1
sS'sermon'
p5583
I1
sS'micallef'
p5584
I1
sS'wardrob'
p5585
I1
sS'tar'
p5586
I2
sS'oili'
p5587
I1
sS'nobel'
p5588
I1
sS'websit'
p5589
I3
sS'asteroid'
p5590
I1
sS'cut-out'
p5591
I1
sS'overbear'
p5592
I1
sS'one-dimension'
p5593
I4
sS'akasha'
p5594
I1
sS'unplaus'
p5595
I1
sS'gladiat'
p5596
I2
sS'train'
p5597
I9
sS'daugher'
p5598
I1
sS'iii'
p5599
I3
sS'opium'
p5600
I1
sS'account'
p5601
I2
sS'alik'
p5602
I2
sS'from-say'
p5603
I1
sS'f'
p5604
I16
sS'gabriel'
p5605
I1
sS'unreal'
p5606
I3
sS'obvious'
p5607
I30
sS'poseur'
p5608
I2
sS'fetch'
p5609
I2
sS'aliv'
p5610
I1
sS'tarantino'
p5611
I8
sS'contempl'
p5612
I3
sS'carwreck'
p5613
I1
sS'uncreat'
p5614
I4
sS'yu-gi-oh'
p5615
I1
sS'yurelf'
p5616
I1
sS'downhil'
p5617
I2
sS'onlin'
p5618
I1
sS'prece'
p5619
I1
sS'bonet'
p5620
I1
sS'everywher'
p5621
I6
sS'surfac'
p5622
I1
sS'fett'
p5623
I1
sS'lame'
p5624
I51
sS'characters--black'
p5625
I1
sS'forest'
p5626
I2
sS'boggl'
p5627
I2
sS'stock'
p5628
I3
sS'unentertain'
p5629
I3
sS'fram'
p5630
I1
sS'payrol'
p5631
I1
sS'bevvi'
p5632
I1
sS'redund'
p5633
I2
sS'philosophi'
p5634
I1
sS'physic'
p5635
I6
sS'aniston'
p5636
I2
sS'bink'
p5637
I1
sS'bind'
p5638
I1
sS'bing'
p5639
I2
sS'liner'
p5640
I3
sS'furious'
p5641
I2
sS'ricer'
p5642
I1
sS'imperson'
p5643
I1
sS'meter'
p5644
I1
sS'bunch'
p5645
I35
sS'le'
p5646
I1
sS'tsk'
p5647
I1
sS'birthplac'
p5648
I1
sS'la'
p5649
I3
sS'lo'
p5650
I2
sS'boy-meets-girl'
p5651
I1
sS'li'
p5652
I6
sS'kindergarten'
p5653
I1
sS'heroism'
p5654
I2
sS'blatant'
p5655
I4
sS'glossiest'
p5656
I1
sS'ly'
p5657
I1
sS'dad'
p5658
I7
sS'greater'
p5659
I1
sS'camus'
p5660
I1
sS'dam'
p5661
I2
sS'spell'
p5662
I2
sS'swordfish'
p5663
I1
sS's-u-c-k-e-d'
p5664
I1
sS'mention'
p5665
I22
sS'overkil'
p5666
I1
sS'dar'
p5667
I1
sS'das'
p5668
I1
sS'day'
p5669
I71
sS'gadzook'
p5670
I1
sS'flail'
p5671
I1
sS'e-v-e-r'
p5672
I1
sS'thrill'
p5673
I2
sS'cider'
p5674
I1
sS'disregard'
p5675
I1
sS'slacker'
p5676
I2
sS'jockstrap'
p5677
I1
sS'himself--and'
p5678
I1
sS'intellig'
p5679
I25
sS'einstein'
p5680
I1
sS'over-analyz'
p5681
I1
sS'fashza'
p5682
I1
sS'sexual'
p5683
I18
sS'marius'
p5684
I1
sS'stur'
p5685
I1
sS'matt'
p5686
I5
sS'rep'
p5687
I1
sS'cheeseburg'
p5688
I1
sS'mate'
p5689
I1
sS'ren'
p5690
I1
sS'stun'
p5691
I3
sS'defens'
p5692
I4
sS'red'
p5693
I5
sS'wholli'
p5694
I4
sS'retrievel'
p5695
I1
sS'harold'
p5696
I1
sS'jessica'
p5697
I1
sS'insid'
p5698
I5
sS'bleep'
p5699
I1
sS'coen'
p5700
I5
sS'fourteen'
p5701
I2
sS'que'
p5702
I1
sS'prpackag'
p5703
I1
sS'releas'
p5704
I10
sS'afterward'
p5705
I2
sS'septemb'
p5706
I1
sS'yard'
p5707
I3
sS'curiosity-sinc'
p5708
I1
sS'discomfort'
p5709
I1
sS'lobotom'
p5710
I1
sS'presid'
p5711
I7
sS'retain'
p5712
I1
sS'south'
p5713
I12
sS'ghast'
p5714
I1
sS'finest'
p5715
I1
sS'franki'
p5716
I1
sS'sack'
p5717
I1
sS'philadelphia'
p5718
I1
sS'whoop'
p5719
I1
sS'puppet'
p5720
I3
sS'sacr'
p5721
I2
sS'facil'
p5722
I2
sS'suffic'
p5723
I1
sS'ancient'
p5724
I4
sS'monkey'
p5725
I5
sS'vulgar'
p5726
I8
sS'messag'
p5727
I19
sS'fahrenheit'
p5728
I2
sS'baby"'
p5729
I1
sS'pakistani'
p5730
I1
sS'hilari'
p5731
I14
sS'cabin'
p5732
I2
sS'gear'
p5733
I3
sS'negro'
p5734
I1
sS'motionless'
p5735
I1
sS'karaok'
p5736
I1
sS'spiegel'
p5737
I1
sS'nobodi'
p5738
I5
sS'dreari'
p5739
I1
sS'hungov'
p5740
I1
sS'twioc'
p5741
I1
sS'slack'
p5742
I2
sS'caveziel'
p5743
I1
sS'charact'
p5744
I152
sS'sweden'
p5745
I1
sS'circumspect'
p5746
I1
sS'lover'
p5747
I4
sS'kubrick'
p5748
I11
sS'fraudul'
p5749
I1
sS'shakespear'
p5750
I5
sS'ta-ta'
p5751
I1
sS'immigr'
p5752
I1
sS'have'
p5753
I331
sS'throat'
p5754
I3
sS'clunker'
p5755
I4
sS'dementia'
p5756
I1
sS'terribley'
p5757
I1
sS'min'
p5758
I6
sS'mia'
p5759
I1
sS'mic'
p5760
I1
sS'mid'
p5761
I2
sS'cosbi'
p5762
I2
sS'mix'
p5763
I9
sS'graviti'
p5764
I1
sS'messang'
p5765
I1
sS'unless'
p5766
I24
sS'sfx'
p5767
I3
sS'salli'
p5768
I1
sS'mortal'
p5769
I1
sS'sfo'
p5770
I1
sS'redninefan'
p5771
I1
sS'eight'
p5772
I2
sS'herman'
p5773
I1
sS'lame-o'
p5774
I2
sS'douch'
p5775
I1
sS'gather'
p5776
I2
sS'nicholson'
p5777
I8
sS'atwood'
p5778
I1
sS'absurd'
p5779
I5
sS'occasion'
p5780
I7
sS'gore'
p5781
I23
sS'voyuer'
p5782
I1
sS'hamlet'
p5783
I1
sS'pinhead'
p5784
I1
sS'empir'
p5785
I2
sS'texa'
p5786
I8
sS'staff'
p5787
I1
sS'with'
p5788
I145
sS'scorpion'
p5789
I1
sS'madman'
p5790
I1
sS'hyster'
p5791
I1
sS'satan'
p5792
I3
sS'self-involv'
p5793
I1
sS'riceburn'
p5794
I1
sS'communist'
p5795
I2
sS'inferior'
p5796
I2
sS'jews_white_slaveri'
p5797
I1
sS'strawberri'
p5798
I1
sS'beat'
p5799
I14
sS'disagre'
p5800
I1
sS'rush'
p5801
I5
sS'bear'
p5802
I3
sS'beal'
p5803
I1
sS'awak'
p5804
I5
sS'over-hyp'
p5805
I3
sS'farley'
p5806
I3
sS'increas'
p5807
I1
sS'photographi'
p5808
I1
sS'lecter'
p5809
I1
sS'reluct'
p5810
I2
sS'organ'
p5811
I2
sS'travisti'
p5812
I1
sS"won't"
p5813
I20
sS'gibson'
p5814
I17
sS'artsy-fartsi'
p5815
I1
sS'madam'
p5816
I1
sS'potboil'
p5817
I1
sS'horrend'
p5818
I10
sS'accord'
p5819
I4
sS'apolog'
p5820
I3
sS'skynet'
p5821
I1
sS'indoctrin'
p5822
I1
sS'denero'
p5823
I1
sS'progress'
p5824
I2
sS'gratuti'
p5825
I1
sS'legit'
p5826
I1
sS'pecent'
p5827
I1
sS'boloney'
p5828
I2
sS'instant'
p5829
I5
sS'joke'
p5830
I68
sS'equal'
p5831
I10
sS'instanc'
p5832
I1
sS'equat'
p5833
I2
sS'swim'
p5834
I1
sS'swallow'
p5835
I4
sS'highland'
p5836
I1
sS'devout'
p5837
I1
sS'venu'
p5838
I1
sS'yuppi'
p5839
I1
sS'guidelin'
p5840
I1
sS'accolad'
p5841
I2
sS'denis'
p5842
I2
sS'laugh'
p5843
I83
sS'basing'
p5844
I1
sS'fright'
p5845
I2
sS'catherin'
p5846
I3
sS'assinin'
p5847
I2
sS'romero'
p5848
I3
sS'nonhonor'
p5849
I1
sS'certain'
p5850
I21
sS'upbeat'
p5851
I2
sS"it'd"
p5852
I1
sS'muddl'
p5853
I1
sS'anaem'
p5854
I1
sS'assert'
p5855
I2
sS'bull'
p5856
I9
sS'fellow'
p5857
I2
sS'caddi'
p5858
I1
sS'homer'
p5859
I2
sS'vapid'
p5860
I4
sS'mixed-up'
p5861
I1
sS'plain'
p5862
I35
sS'defin'
p5863
I7
sS'"one'
p5864
I1
sS'genr'
p5865
I16
sS'tohught'
p5866
I1
sS'defic'
p5867
I1
sS'howev'
p5868
I28
sS'ncaa'
p5869
I1
sS'snuggl'
p5870
I1
sS'aw'
p5871
I98
sS'bicker'
p5872
I2
sS'almost'
p5873
I36
sS'dissent'
p5874
I1
sS'blood'
p5875
I25
sS'generat'
p5876
I7
sS'pseudo-histor'
p5877
I1
sS'arabia'
p5878
I2
sS'partner'
p5879
I2
sS'bloodless'
p5880
I1
sS'deber'
p5881
I1
sS'auto-cu'
p5882
I1
sS'portray'
p5883
I23
sS'japanes'
p5884
I10
sS')'
p5885
I50
sS'goddess'
p5886
I1
sS'defiant'
p5887
I1
sS'foxx'
p5888
I1
sS'fabl'
p5889
I1
sS"supposed'humor"
p5890
I1
sS'prais'
p5891
I10
sS'mean-spirit'
p5892
I3
sS'retard'
p5893
I11
sS'center'
p5894
I3
sS'nevertheless'
p5895
I1
sS'weapon'
p5896
I10
sS'underfund'
p5897
I1
sS'antonio'
p5898
I1
sS'thought'
p5899
I121
sS'retart'
p5900
I2
sS'choos'
p5901
I1
sS'posses'
p5902
I1
sS'coaster'
p5903
I2
sS'dudett'
p5904
I1
sS'humdrum'
p5905
I1
sS'clinic'
p5906
I3
sS'feminin'
p5907
I1
sS'surpass'
p5908
I1
sS'nikelodeon'
p5909
I1
sS'tone'
p5910
I4
sS'griffith'
p5911
I3
sS'flashlight'
p5912
I2
sS'work-'
p5913
I1
sS'effin'
p5914
I1
sS'add'
p5915
I18
sS'reunit'
p5916
I1
sS'niro'
p5917
I4
sS'match'
p5918
I2
sS'raven'
p5919
I1
sS'punctuat'
p5920
I1
sS'realiz'
p5921
I15
sS'freshmor'
p5922
I1
sS'nemesi'
p5923
I3
sS'judiciari'
p5924
I1
sS'insert'
p5925
I2
sS'like'
p5926
I421
sS'success'
p5927
I14
sS'sex-cent'
p5928
I1
sS'unintellig'
p5929
I1
sS'doctrin'
p5930
I1
sS'lose'
p5931
I13
sS'heed'
p5932
I1
sS'scriptwrit'
p5933
I1
sS'chick'
p5934
I15
sS'stupedist'
p5935
I1
sS'soft'
p5936
I1
sS'italian'
p5937
I2
sS'enterta'
p5938
I1
sS'no-wher'
p5939
I1
sS'hair'
p5940
I10
sS'convey'
p5941
I2
sS'proper'
p5942
I6
sS'est'
p5943
I2
sS'anti-castro'
p5944
I1
sS'war-mong'
p5945
I1
sS'unfunni'
p5946
I31
sS'catchprase-origin'
p5947
I1
sS'regain'
p5948
I1
sS'pepper'
p5949
I3
sS'kool-aid'
p5950
I1
sS'worthi'
p5951
I6
sS'"faster'
p5952
I1
sS'amittyvill'
p5953
I1
sS'host'
p5954
I3
sS'reveng'
p5955
I5
sS'although'
p5956
I10
sS'panel'
p5957
I1
sS'about'
p5958
I80
sS'actual'
p5959
I115
sS'justin'
p5960
I4
sS'justic'
p5961
I4
sS'"you'
p5962
I1
sS'justif'
p5963
I1
sS'magnolia'
p5964
I1
sS'tomb'
p5965
I4
sS'ottman'
p5966
I1
sS'desper'
p5967
I7
sS'guard'
p5968
I2
sS'doesnt'
p5969
I5
sS'esteem'
p5970
I2
sS'awhil'
p5971
I1
sS'workmanlik'
p5972
I1
sS'1987'
p5973
I1
sS'1985'
p5974
I1
sS'1983'
p5975
I2
sS'1980'
p5976
I1
sS'pictur'
p5977
I37
sS'1988'
p5978
I1
sS'biggest'
p5979
I30
sS'buy'
p5980
I21
sS'rodger'
p5981
I1
sS'unexpect'
p5982
I1
sS'bus'
p5983
I7
sS'brand'
p5984
I2
sS'sequel'
p5985
I54
sS'but'
p5986
I397
sS'jawbreak'
p5987
I1
sS'bul'
p5988
I1
sS'bum'
p5989
I2
sS'comatos'
p5990
I1
sS'bug'
p5991
I4
sS'bud'
p5992
I1
sS'real-lif'
p5993
I1
sS'wise'
p5994
I3
sS'farrah'
p5995
I1
sS'that4hr'
p5996
I1
sS'wish'
p5997
I33
sS'j'
p5998
I5
sS'flip'
p5999
I1
sS'killabuds4every1'
p6000
I1
sS'glori'
p6001
I3
sS'caretak'
p6002
I1
sS'dure'
p6003
I32
sS'circus'
p6004
I1
sS"pile'o"
p6005
I1
sS'pie'
p6006
I6
sS'pig'
p6007
I3
sS'pyschiatr'
p6008
I1
sS'dawson'
p6009
I1
sS'anjelica'
p6010
I1
sS'pit'
p6011
I1
sS'autism'
p6012
I1
sS'probabl'
p6013
I38
sS'tricki'
p6014
I1
sS'48'
p6015
I1
sS'44'
p6016
I1
sS'45'
p6017
I4
sS'detail'
p6018
I4
sS'virtual'
p6019
I4
sS'headmistress'
p6020
I1
sS'nelson'
p6021
I1
sS'allthough'
p6022
I1
sS'perfectly-aw'
p6023
I1
sS'semin'
p6024
I1
sS'laestat'
p6025
I1
sS'basketbal'
p6026
I3
sS'pilat'
p6027
I1
sS'influenc'
p6028
I1
sS'yell'
p6029
I4
sS'cookbook'
p6030
I1
sS'persuad'
p6031
I1
sS'8th'
p6032
I1
sS'high-budget'
p6033
I1
sS'hatr'
p6034
I2
sS'dern'
p6035
I1
sS'fancy-p'
p6036
I1
sS'sleep'
p6037
I27
sS'hate'
p6038
I148
sS'asthet'
p6039
I1
sS'ozzi'
p6040
I1
sS'under'
p6041
I6
sS'pride'
p6042
I1
sS'suitabl'
p6043
I1
sS'@'
p6044
I1
sS'exxcept'
p6045
I1
sS'everi'
p6046
I72
sS'risk'
p6047
I3
sS'rise'
p6048
I3
sS'jack'
p6049
I17
sS'school'
p6050
I29
sS'flashi'
p6051
I2
sS'regret"'
p6052
I1
sS'harrier'
p6053
I1
sS'storylin'
p6054
I43
sS'naiv'
p6055
I1
sS'direct'
p6056
I56
sS'pessimsit'
p6057
I2
sS'nail'
p6058
I4
sS'street'
p6059
I10
sS'manur'
p6060
I1
sS'blue'
p6061
I11
sS'desdemona'
p6062
I1
sS'hide'
p6063
I6
sS'christ'
p6064
I5
sS'solemn'
p6065
I1
sS'beaten'
p6066
I2
sS'poison'
p6067
I1
sS'filmmak'
p6068
I7
sS'disney'
p6069
I16
sS'mcauley'
p6070
I1
sS'zack'
p6071
I1
sS'yanke'
p6072
I2
sS'studio'
p6073
I7
sS'path'
p6074
I2
sS'aaaahhhhh'
p6075
I1
sS'non-whit'
p6076
I1
sS'forum'
p6077
I1
sS'anymor'
p6078
I12
sS'worse-'
p6079
I1
sS'precis'
p6080
I2
sS'bastardis'
p6081
I1
sS'mindless--anchorman'
p6082
I1
sS'incap'
p6083
I1
sS'tremend'
p6084
I2
sS'stray'
p6085
I1
sS'iconoclasm'
p6086
I1
sS'infantil'
p6087
I2
sS'julia'
p6088
I14
sS'morpheus'
p6089
I1
sS'melani'
p6090
I1
sS'eastwood'
p6091
I2
sS'describ'
p6092
I17
sS'would'
p6093
I98
sS'lazenbi'
p6094
I1
sS'arthurian'
p6095
I1
sS'spike'
p6096
I1
sS'preview'
p6097
I15
sS'moiv'
p6098
I2
sS'grier'
p6099
I2
sS'dialoug'
p6100
I6
sS'protagnoist'
p6101
I1
sS'jango'
p6102
I1
sS'phone'
p6103
I1
sS'jangl'
p6104
I1
sS'phoni'
p6105
I7
sS'must'
p6106
I17
sS'shoot'
p6107
I18
sS'dodg'
p6108
I1
sS'henri'
p6109
I2
sS'dafo'
p6110
I1
sS'mn'
p6111
I1
sS'introduc'
p6112
I6
sS'ms'
p6113
I2
sS'mr'
p6114
I17
sS'my'
p6115
I188
sS'military-typ'
p6116
I1
sS'mayhem'
p6117
I1
sS'overheard'
p6118
I1
sS'attract'
p6119
I12
sS'end'
p6120
I145
sS'supertrash'
p6121
I1
sS'completley'
p6122
I1
sS'ultra-liber'
p6123
I2
sS'shred'
p6124
I1
sS'gate'
p6125
I1
sS'widespread'
p6126
I1
sS'collaps'
p6127
I1
sS'hiliar'
p6128
I1
sS'elizabeth'
p6129
I2
sS'claptrap'
p6130
I5
sS'mess'
p6131
I19
sS'lump'
p6132
I2
sS'befor'
p6133
I55
sS'quasi-homosexu'
p6134
I1
sS'delicaci'
p6135
I1
sS'time----graph'
p6136
I1
sS'austin'
p6137
I8
sS'spout'
p6138
I1
sS'exclud'
p6139
I1
sS'insuffer'
p6140
I1
sS'daredevil'
p6141
I1
sS'danni'
p6142
I3
sS'funniest'
p6143
I5
sS'mega-bomb'
p6144
I1
sS'enter'
p6145
I1
sS'plagu'
p6146
I3
sS'reflux'
p6147
I1
sS'behav'
p6148
I1
sS'deform'
p6149
I1
sS'over'
p6150
I47
sS'ratings-'
p6151
I1
sS'orang'
p6152
I5
sS'becaus'
p6153
I177
sS'carnag'
p6154
I1
sS'london'
p6155
I1
sS'oven'
p6156
I1
sS'digest'
p6157
I1
sS'trama'
p6158
I1
sS'borneo'
p6159
I1
sS'suvari'
p6160
I1
sS'thrust'
p6161
I1
sS'imo'
p6162
I1
sS'tramp'
p6163
I1
sS'vengenc'
p6164
I1
sS'fade'
p6165
I1
sS'mistreat'
p6166
I1
sS'comprehens'
p6167
I1
sS'terorrist'
p6168
I1
sS'tourist'
p6169
I1
sS'`'
p6170
I1
sS'rental'
p6171
I8
sS'choic'
p6172
I4
sS'30-year'
p6173
I1
sS'alex'
p6174
I3
sS'victori'
p6175
I1
sS'harri'
p6176
I9
sS'choir'
p6177
I1
sS'arquett'
p6178
I3
sS'each'
p6179
I11
sS'yung'
p6180
I1
sS'alec'
p6181
I2
sS'wheel'
p6182
I1
sS'unapp'
p6183
I2
sS'digust'
p6184
I1
sS'saturday'
p6185
I2
sS'depress'
p6186
I15
sS'goe'
p6187
I36
sS'god'
p6188
I63
sS'psychic'
p6189
I2
sS'two-hour'
p6190
I1
sS'gob'
p6191
I2
sS'laid'
p6192
I4
sS'got'
p6193
I107
sS'unimagin'
p6194
I5
sS'bald'
p6195
I2
sS'inov'
p6196
I1
sS'disorgan'
p6197
I1
sS'free'
p6198
I15
sS'fred'
p6199
I3
sS'rain'
p6200
I4
sS'stormar'
p6201
I1
sS'sank'
p6202
I1
sS'hech'
p6203
I1
sS'heck'
p6204
I8
sS'hecl'
p6205
I1
sS'hopeless'
p6206
I3
sS'differnt'
p6207
I1
sS'onto'
p6208
I3
sS'fantasi'
p6209
I10
sS'rang'
p6210
I1
sS'rank'
p6211
I5
sS'rant'
p6212
I3
sS'alreadi'
p6213
I26
sS'grisley'
p6214
I1
sS'700'
p6215
I1
sS'fantast'
p6216
I10
sS'primari'
p6217
I1
sS'toy'
p6218
I4
sS'corpul'
p6219
I1
sS'sarcasm'
p6220
I3
sS'top'
p6221
I18
sS'fiction'
p6222
I15
sS'sarcast'
p6223
I3
sS'ton'
p6224
I6
sS'overact'
p6225
I3
sS'tom'
p6226
I32
sS'carrey'
p6227
I19
sS'toe'
p6228
I1
sS'urban'
p6229
I5
sS'murder'
p6230
I17
sS'ritter'
p6231
I1
sS'tool'
p6232
I3
sS'took'
p6233
I28
sS'western'
p6234
I4
sS'conserv'
p6235
I4
sS'"make'
p6236
I1
sS'scenario'
p6237
I3
sS'predictib'
p6238
I1
sS'tranpar'
p6239
I1
sS'10th'
p6240
I1
sS'screenplay'
p6241
I11
sS'rag'
p6242
I1
sS'donkey'
p6243
I6
sS'fashion'
p6244
I5
sS'ran'
p6245
I7
sS'drip'
p6246
I2
sS'raw'
p6247
I2
sS'rat'
p6248
I3
sS'rap'
p6249
I3
sS'ohhhh'
p6250
I1
sS'lbj'
p6251
I1
sS'spade'
p6252
I3
sS'ray'
p6253
I3
sS'braveheart'
p6254
I5
sS'-'
p6255
I15
sS'snow'
p6256
I1
sS'1962'
p6257
I1
sS'hahahahahaahahaahah'
p6258
I1
sS'thoma'
p6259
I3
sS'dian'
p6260
I1
sS'naturallyyou'
p6261
I1
sS'plenti'
p6262
I5
sS'though'
p6263
I37
sS'posner'
p6264
I2
sS'phantasm'
p6265
I2
sS'bsb'
p6266
I1
sS'late-night'
p6267
I1
sS'flop'
p6268
I5
sS'flow'
p6269
I2
sS'yawn-induc'
p6270
I1
sS'declar'
p6271
I1
sS'flog'
p6272
I2
sS'saga'
p6273
I2
sS'queen'
p6274
I3
sS'radio'
p6275
I1
sS'shelv'
p6276
I1
sS'radic'
p6277
I1
sS'earth'
p6278
I19
sS'bail'
p6279
I1
sS'absolut'
p6280
I79
sS'vinni'
p6281
I2
sS'spite'
p6282
I4
sS'pseudo-intellectu'
p6283
I2
sS'awsom'
p6284
I1
sS'sympathet'
p6285
I1
sS'1940'
p6286
I1
sS'disgust'
p6287
I38
sS'geez'
p6288
I2
sS'uhhh'
p6289
I1
sS'watch'
p6290
I287
sS'photograph'
p6291
I1
sS'geek'
p6292
I2
sS'report'
p6293
I7
sS'sabrina'
p6294
I1
sS'public'
p6295
I18
sS'twice'
p6296
I7
sS'pacifist'
p6297
I1
sS'pfeiffer'
p6298
I2
sS'swept'
p6299
I1
sS'robbi'
p6300
I1
sS'nut'
p6301
I4
sS'charect'
p6302
I1
sS'pseudo-class'
p6303
I1
sS'inapt'
p6304
I1
sS'nun'
p6305
I1
sS'corrupt'
p6306
I2
sS'simultani'
p6307
I1
sS'half-heart'
p6308
I1
sS'percuss'
p6309
I1
sS'cartoonish'
p6310
I1
sS'grumbl'
p6311
I1
sS'"oh'
p6312
I1
sS'mud'
p6313
I1
sS'outstand'
p6314
I1
sS'finger'
p6315
I3
sS'approach'
p6316
I3
sS'360'
p6317
I1
sS'weak'
p6318
I22
sS'boss'
p6319
I3
sS'wear'
p6320
I9
sS'sediti'
p6321
I1
sS'news'
p6322
I3
sS'protect'
p6323
I4
sS'fault'
p6324
I3
sS'myer'
p6325
I13
sS'tushi'
p6326
I1
sS'recircul'
p6327
I1
sS'maudlin'
p6328
I4
sS'dougla'
p6329
I4
sS'trust'
p6330
I11
sS'nake'
p6331
I11
sS'zeta-jon'
p6332
I2
sS'bathroom'
p6333
I7
sS'beef'
p6334
I1
sS'nonsens'
p6335
I16
sS'stivic'
p6336
I1
sS'been'
p6337
I66
sS'beer'
p6338
I3
sS'splatter'
p6339
I1
sS'slow-mot'
p6340
I1
sS'stubbl'
p6341
I1
sS'all-too-typ'
p6342
I1
sS'xxx'
p6343
I1
sS'craft'
p6344
I2
sS'catch'
p6345
I9
sS'snipe'
p6346
I2
sS'teapot'
p6347
I1
sS'macguir'
p6348
I1
sS'screenwrit'
p6349
I3
sS'fallon'
p6350
I1
sS'lessen'
p6351
I1
sS'propabl'
p6352
I1
sS'n'
p6353
I3
sS'lesser'
p6354
I1
sS'ugliest'
p6355
I2
sS'depp'
p6356
I3
sS'chick-fil-a'
p6357
I1
sS'exterior'
p6358
I1
sS'blood-soak'
p6359
I1
sS'-an'
p6360
I1
sS'hollywood-is'
p6361
I1
sS'suggest'
p6362
I11
sS'stone-fac'
p6363
I1
sS'novelett'
p6364
I1
sS'forehead'
p6365
I1
sS'complex'
p6366
I3
sS'complet'
p6367
I83
sS'leftist'
p6368
I1
sS'screw'
p6369
I9
sS'pick'
p6370
I18
sS'camouflag'
p6371
I2
sS'tyson'
p6372
I1
sS'characterz'
p6373
I1
sS'ocean'
p6374
I2
sS'greatest'
p6375
I16
sS'charliz'
p6376
I2
sS'mother'
p6377
I13
sS'everyth'
p6378
I37
sS'laptop'
p6379
I1
sS'grader'
p6380
I3
sS'enlighten'
p6381
I2
sS'expos'
p6382
I2
sS'elm'
p6383
I1
sS'puppetri'
p6384
I1
sS'achili'
p6385
I1
sS'lawrenc'
p6386
I8
sS'els'
p6387
I42
sS'gave'
p6388
I37
sS'tactic'
p6389
I1
sS'right-w'
p6390
I1
sS'butt-head'
p6391
I1
sS'apart'
p6392
I9
sS'martha'
p6393
I4
sS'ditto'
p6394
I1
sS'gift'
p6395
I4
sS'bygon'
p6396
I1
sS'hunt'
p6397
I12
sS'dishonest'
p6398
I3
sS'50'
p6399
I17
sS'herend'
p6400
I1
sS'unstabl'
p6401
I2
sS'singl'
p6402
I15
sS'digimon'
p6403
I3
sS'juliett'
p6404
I1
sS'amor'
p6405
I1
sS'delinqu'
p6406
I1
sS'56'
p6407
I1
sS'spongebob'
p6408
I1
sS'smarmi'
p6409
I2
sS'paltrow'
p6410
I6
sS'donald'
p6411
I1
sS'mis-cast'
p6412
I1
sS'cooper'
p6413
I1
sS'yike'
p6414
I3
sS'reffer'
p6415
I1
sS'ice'
p6416
I6
sS'totali'
p6417
I2
sS'convict'
p6418
I1
sS'tht'
p6419
I1
sS'brawl'
p6420
I1
sS'corn'
p6421
I1
sS'thrill-less'
p6422
I1
sS'discount'
p6423
I3
sS'olsen'
p6424
I1
sS'money-grub'
p6425
I1
sS'meyer'
p6426
I1
sS'chapter'
p6427
I1
sS'horiibl'
p6428
I1
sS'cowboy'
p6429
I1
sS'choke'
p6430
I2
sS'surround'
p6431
I4
sS'unfortun'
p6432
I17
sS'total-'
p6433
I67410
sS'dinner'
p6434
I2
sS'plus'
p6435
I18
sS'liber'
p6436
I9
sS'twitch'
p6437
I1
sS'produc'
p6438
I33
sS'duke'
p6439
I3
sS'bate'
p6440
I5
sS'civic'
p6441
I2
sS'civil'
p6442
I2
sS'ahh'
p6443
I2
sS'decapit'
p6444
I1
sS'two'
p6445
I48
sS'aht'
p6446
I1
sS'zellwegg'
p6447
I3
sS'debacl'
p6448
I1
sS'psychot'
p6449
I2
sS'frustrat'
p6450
I3
sS'transform'
p6451
I2
sS'sunlight'
p6452
I1
sS'gig'
p6453
I6
sS'stuck'
p6454
I4
sS'reli'
p6455
I6
sS'gia'
p6456
I1
sS'gim'
p6457
I1
sS'head'
p6458
I32
sS'amateur'
p6459
I1
sS'altogeth'
p6460
I6
sS'excerpt'
p6461
I1
sS'heal'
p6462
I1
sS'6'
p6463
I7
sS'unconvinc'
p6464
I4
sS'uuuh'
p6465
I1
sS'reales'
p6466
I1
sS'hear'
p6467
I16
sS'heap'
p6468
I4
sS'choreograph'
p6469
I2
sS'nerdi'
p6470
I3
sS'bargain'
p6471
I4
sS'hmm'
p6472
I2
sS'-----ohio'
p6473
I1
sS'soldeir'
p6474
I1
sS'kaufman'
p6475
I2
sS'cocain'
p6476
I1
sS'furi'
p6477
I1
sS'check'
p6478
I10
sS'assembl'
p6479
I2
sS'ni'
p6480
I2
sS'nj'
p6481
I1
sS'no'
p6482
I202
sS'tit'
p6483
I1
sS'tip'
p6484
I4
sS'sloth-lik'
p6485
I1
sS'til'
p6486
I2
sS'tim'
p6487
I10
sS'tin'
p6488
I1
sS'whew'
p6489
I2
sS'tie'
p6490
I4
sS'nt'
p6491
I1
sS'tappi'
p6492
I1
sS'screwbal'
p6493
I1
sS'phoenix'
p6494
I1
sS'pg-13'
p6495
I6
sS'bruckheim'
p6496
I4
sS'consid'
p6497
I41
sS'stinkin'
p6498
I1
sS'younger'
p6499
I7
sS'faster'
p6500
I3
sS'bullet'
p6501
I3
sS'1800'
p6502
I1
sS'time-travel'
p6503
I1
sS'ryder'
p6504
I2
sS"n'"
p6505
I1
sS'whalberg'
p6506
I1
sS'bambi'
p6507
I1
sS'vietnam'
p6508
I1
sS'worse--it'
p6509
I1
sS'serious'
p6510
I21
sS'backward'
p6511
I1
sS'azaria'
p6512
I1
sS'coach'
p6513
I1
sS'ron'
p6514
I2
sS'impression'
p6515
I1
sS'rob'
p6516
I15
sS'celebr'
p6517
I3
sS'rod'
p6518
I1
sS'focus'
p6519
I10
sS'signific'
p6520
I4
sS'stumbl'
p6521
I2
sS'deprav'
p6522
I2
sS'rot'
p6523
I3
sS'discern'
p6524
I1
sS'cann'
p6525
I1
sS'slow-go'
p6526
I1
sS'1942'
p6527
I1
sS'b-movi'
p6528
I3
sS'1941'
p6529
I3
sS'word-'
p6530
I1
sS'sourc'
p6531
I2
sS'sequal'
p6532
I5
sS'hatter'
p6533
I1
sS'1492'
p6534
I1
sS'feel-good'
p6535
I1
sS'cook'
p6536
I2
sS'heston'
p6537
I2
sS'cool'
p6538
I31
sS'looney'
p6539
I1
sS'best-'
p6540
I1
sS'level'
p6541
I8
sS'valentin'
p6542
I1
sS'brother'
p6543
I14
sS'shortcom'
p6544
I1
sS'mind-numb'
p6545
I2
sS'merki'
p6546
I1
sS'quick'
p6547
I16
sS'electocut'
p6548
I1
sS'farrel'
p6549
I2
sS'clay-anim'
p6550
I1
sS'porn'
p6551
I7
sS'trend'
p6552
I7
sS'cyber'
p6553
I1
sS'colin'
p6554
I1
sS'porr'
p6555
I1
sS'spin-off'
p6556
I1
sS'fear'
p6557
I6
sS'inconclus'
p6558
I1
sS'posh'
p6559
I1
sS'goer'
p6560
I2
sS'interraci'
p6561
I1
sS'529'
p6562
I1
sS'buscemi'
p6563
I1
sS'angelina'
p6564
I8
sS'leguizamo'
p6565
I1
sS'entertain'
p6566
I43
sS'witch'
p6567
I16
sS'unnatur'
p6568
I1
sS'['
p6569
I2
sS'sheriff'
p6570
I1
sS'shove'
p6571
I3
sS'goldmemb'
p6572
I2
sS'thirti'
p6573
I2
sS'prude'
p6574
I4
sS'paxton'
p6575
I1
sS'weird'
p6576
I10
sS'hartnett'
p6577
I3
sS'preposter'
p6578
I3
sS'dumb'
p6579
I45
sS'sleak'
p6580
I1
sS'humour'
p6581
I8
sS'habor'
p6582
I1
sS'1st'
p6583
I3
sS'ravolta'
p6584
I2
sS'ipecac'
p6585
I1
sS'concoct'
p6586
I2
sS'vivid'
p6587
I2
sS'memori'
p6588
I4
sS'hidious'
p6589
I1
sS'envi'
p6590
I1
sS'msn'
p6591
I1
sS'upheld'
p6592
I1
sS'schmuk'
p6593
I1
sS'dangrous'
p6594
I1
sS'today'
p6595
I16
sS'plug'
p6596
I1
sS'capit'
p6597
I3
sS'1960'
p6598
I1
sS'well-lit'
p6599
I1
sS'drown'
p6600
I2
sS'kerri'
p6601
I2
sS'inhabit'
p6602
I1
sS'chauvin'
p6603
I1
sS'religi'
p6604
I8
sS'judi'
p6605
I1
sS'wal-mart'
p6606
I1
sS'juda'
p6607
I1
sS'meathead'
p6608
I2
sS'judg'
p6609
I3
sS'jude'
p6610
I3
sS'judd'
p6611
I3
sS'boonton'
p6612
I1
sS'minimum'
p6613
I1
sS'purpos'
p6614
I13
sS'laughter'
p6615
I4
sS'slightest'
p6616
I6
sS'vigor'
p6617
I1
sS'stream'
p6618
I1
sS'stroke'
p6619
I2
sS'flashdanc'
p6620
I1
sS'semi-funni'
p6621
I1
sS'1'
p6622
I55
sS'alway'
p6623
I24
sS'anyon'
p6624
I92
sS'fourth'
p6625
I2
sS'occass'
p6626
I1
sS'clone'
p6627
I6
sS'levi'
p6628
I1
sS'clint'
p6629
I1
sS'classroom'
p6630
I1
sS'unsettl'
p6631
I1
sS'practic'
p6632
I4
sS'unorigin'
p6633
I4
sS'predic'
p6634
I1
sS'inform'
p6635
I5
sS'reaper'
p6636
I1
sS'combin'
p6637
I10
sS'gerard'
p6638
I1
sS'refund'
p6639
I3
sS'wothless'
p6640
I1
sS'anticip'
p6641
I1
sS'worship'
p6642
I2
sS'bacal'
p6643
I1
sS"he'd"
p6644
I2
sS'notibl'
p6645
I1
sS'freagin'
p6646
I1
sS'plotlin'
p6647
I5
sS'molass'
p6648
I1
sS'curios'
p6649
I3
sS'aaaahhhhhhh'
p6650
I1
sS'wagon'
p6651
I1
sS'term'
p6652
I4
sS'terl'
p6653
I1
sS'name'
p6654
I14
sS'realist'
p6655
I6
sS'opera'
p6656
I1
sS'terd'
p6657
I1
sS'cerebr'
p6658
I1
sS'two-dimension'
p6659
I1
sS'realism'
p6660
I1
sS'notabl'
p6661
I1
sS'coastal'
p6662
I1
sS'individu'
p6663
I3
sS'torch'
p6664
I1
sS'begun'
p6665
I2
sS'dench'
p6666
I1
sS'dispos'
p6667
I3
sS'hysteria'
p6668
I1
sS'flaccid'
p6669
I1
sS'putrid'
p6670
I3
sS'concur'
p6671
I2
sS'dredg'
p6672
I1
sS'faculti'
p6673
I1
sS'leviathan'
p6674
I1
sS"shouldn't"
p6675
I15
sS'uncl'
p6676
I1
sS'miscast'
p6677
I6
sS'she'
p6678
I61
sS'glimps'
p6679
I1
sS'hulk'
p6680
I3
sS'non-obnoxi'
p6681
I1
sS'unremark'
p6682
I3
sS'theorn'
p6683
I1
sS'theori'
p6684
I6
sS'boobi'
p6685
I1
sS'judea'
p6686
I1
sS'llock'
p6687
I1
sS'flare'
p6688
I1
sS'syndic'
p6689
I1
sS'gofigur'
p6690
I1
sS'motion'
p6691
I6
sS'turn'
p6692
I51
sS'place'
p6693
I33
sS'swing'
p6694
I3
sS'turf'
p6695
I1
sS'refug'
p6696
I1
sS'turd'
p6697
I6
sS'childhood'
p6698
I2
sS'1000'
p6699
I4
sS'origin'
p6700
I67
sS'clumsi'
p6701
I1
sS'feign'
p6702
I1
sS'suspend'
p6703
I1
sS'suspenc'
p6704
I3
sS'mid-lif'
p6705
I2
sS'suspens'
p6706
I16
sS'pokemon'
p6707
I10
sS'given'
p6708
I20
sS'ian'
p6709
I1
sS'teenag'
p6710
I18
sS'virgin'
p6711
I3
sS'pooness'
p6712
I1
sS'bloom'
p6713
I1
sS'trillion'
p6714
I1
sS'plastic'
p6715
I4
sS'necessarili'
p6716
I3
sS'circl'
p6717
I4
sS'white'
p6718
I28
sS'circa'
p6719
I1
sS'hue'
p6720
I1
sS'face-in-the-sand'
p6721
I1
sS'six-pack'
p6722
I1
sS'cope'
p6723
I1
sS'hun'
p6724
I1
sS'copi'
p6725
I15
sS'huh'
p6726
I5
sS'enigma'
p6727
I2
sS'ground--'
p6728
I1
sS'winslet'
p6729
I2
sS'serv'
p6730
I8
sS'wide'
p6731
I3
sS'lmao'
p6732
I2
sS'immor'
p6733
I1
sS'"porky\'s"'
p6734
I1
sS'r'
p6735
I6
sS'award-worthi'
p6736
I1
sS'posit'
p6737
I11
sS'seri'
p6738
I44
sS'and'
p6739
I559
sS'ang'
p6740
I3
sS'rene'
p6741
I8
sS'ann'
p6742
I3
sS'stiffler'
p6743
I1
sS'taseless'
p6744
I1
sS'renn'
p6745
I1
sS'ant'
p6746
I2
sS'redford'
p6747
I2
sS'stiffest'
p6748
I1
sS'rent'
p6749
I62
sS'tylenol'
p6750
I1
sS'dragon'
p6751
I1
sS'stolid'
p6752
I1
sS'superman'
p6753
I5
sS'wantab'
p6754
I1
sS'fifth-rat'
p6755
I1
sS'techniqu'
p6756
I3
sS'constrant'
p6757
I1
sS'blunt'
p6758
I1
sS'surf'
p6759
I1
sS'manniquin'
p6760
I1
sS'sure'
p6761
I44
sS'tornado'
p6762
I1
sS'frig'
p6763
I1
sS'feardotcom'
p6764
I1
sS'icon'
p6765
I1
sS'proud'
p6766
I3
sS'bitti'
p6767
I1
sS'astair'
p6768
I1
sS'senior'
p6769
I2
sS'babbl'
p6770
I1
sS'hungri'
p6771
I2
sS'cheat'
p6772
I4
sS'cheap'
p6773
I20
sS'byonc'
p6774
I1
sS'troy'
p6775
I2
sS'exitsign'
p6776
I1
sS'hack'
p6777
I6
sS'spacey'
p6778
I3
sS'mister'
p6779
I1
sS'catfight'
p6780
I1
sS'terrentino'
p6781
I1
sS'nadir'
p6782
I1
sS'favor'
p6783
I10
sS'true'
p6784
I34
sS'state'
p6785
I16
sS'crime'
p6786
I9
sS'wood'
p6787
I8
sS'cautionari'
p6788
I1
sS'academi'
p6789
I9
sS'nobl'
p6790
I1
sS'tailor'
p6791
I1
sS'lighter'
p6792
I1
sS'brit'
p6793
I3
sS'reveal'
p6794
I3
sS'hellooooo'
p6795
I1
sS'"revolting"'
p6796
I1
sS'dramat'
p6797
I12
sS'doo-dad'
p6798
I1
sS'denouement'
p6799
I1
sS'sssstttuuupppiiiddd'
p6800
I1
sS'anti-aryan'
p6801
I1
sS'conscienc'
p6802
I1
sS'labori'
p6803
I1
sS'stanley'
p6804
I3
sS'detect'
p6805
I2
sS'mekar'
p6806
I1
sS'camaro'
p6807
I1
sS'review'
p6808
I33
sS'duchovni'
p6809
I1
sS'wayn'
p6810
I2
sS'hiss'
p6811
I1
sS'likeabl'
p6812
I3
sS'ale'
p6813
I1
sS'comm'
p6814
I1
sS'coma'
p6815
I2
sS'comb'
p6816
I1
sS'come'
p6817
I95
sS'dolli'
p6818
I1
sS'reaction'
p6819
I2
sS'berri'
p6820
I9
sS'stupidest'
p6821
I16
sS'nifti'
p6822
I2
sS'contract'
p6823
I2
sS'pronto'
p6824
I1
sS'way-'
p6825
I1
sS'three-lay'
p6826
I1
sS'overstyl'
p6827
I1
sS'catwoman'
p6828
I3
sS'color'
p6829
I2
sS'pow'
p6830
I1
sS'pot'
p6831
I3
sS'inspir'
p6832
I5
sS'por'
p6833
I1
sS'period'
p6834
I11
sS'insist'
p6835
I3
sS'29'
p6836
I2
sS'duti'
p6837
I2
sS'poo'
p6838
I12
sS'pole'
p6839
I2
sS'65'
p6840
I1
sS'endeavor'
p6841
I1
sS'coloni'
p6842
I1
sS'badddddd'
p6843
I1
sS'turkey'
p6844
I19
sS'coupl'
p6845
I35
sS'howard'
p6846
I2
sS'pend'
p6847
I1
sS'illog'
p6848
I3
sS'addit'
p6849
I13
sS'in-law'
p6850
I1
sS'homosexuality-'
p6851
I1
sS'dfficult'
p6852
I1
sS'tasteless'
p6853
I9
sS'andrew'
p6854
I1
sS'would-b'
p6855
I2
sS'tiger'
p6856
I2
sS'spirit'
p6857
I6
sS'pilot'
p6858
I2
sS'case'
p6859
I19
sS'shiney'
p6860
I1
sS'myself'
p6861
I39
sS'long-dist'
p6862
I1
sS'amend'
p6863
I1
sS'cash'
p6864
I10
sS'arnold'
p6865
I5
sS'cast'
p6866
I45
sS'50s'
p6867
I1
sS'good--cas'
p6868
I1
sS'projectil'
p6869
I1
sS'vest'
p6870
I1
sS'sub-par'
p6871
I2
sS'inauthent'
p6872
I1
sS'empath'
p6873
I1
sS'mcgregor'
p6874
I1
sS'hammerstein'
p6875
I1
sS'author'
p6876
I4
sS'bowl'
p6877
I2
sS'trip'
p6878
I10
sS'squadroom'
p6879
I1
sS'poor-me-cinderella'
p6880
I1
sS'eventu'
p6881
I3
sS'hermit'
p6882
I1
sS'week'
p6883
I11
sS'persona'
p6884
I1
sS'grail'
p6885
I3
sS'applaud'
p6886
I1
sS'confidenti'
p6887
I1
sS'driver'
p6888
I3
sS'mutha'
p6889
I1
sS'weed'
p6890
I2
sS'director'
p6891
I42
sS'devoid'
p6892
I5
sS'drivel'
p6893
I10
sS'beleiv'
p6894
I4
sS'mockeri'
p6895
I4
sS'cartoon'
p6896
I15
sS'handsom'
p6897
I2
sS'moder'
p6898
I3
sS'reliev'
p6899
I1
sS'ranch'
p6900
I1
sS'kungfu'
p6901
I1
sS'shalyman'
p6902
I1
sS'justifi'
p6903
I6
sS'shamala'
p6904
I1
sS'without'
p6905
I11
sS'tload'
p6906
I1
sS'anthropomorph'
p6907
I1
sS'newsflash'
p6908
I1
sS'model'
p6909
I5
sS'reward'
p6910
I2
sS'flakey'
p6911
I1
sS'satir'
p6912
I3
sS'clog'
p6913
I1
sS'4kid'
p6914
I1
sS'violenc'
p6915
I31
sS'jar-jar'
p6916
I1
sS'when'
p6917
I75
sS'actress'
p6918
I26
sS'violent'
p6919
I15
sS'kill'
p6920
I60
sS'harrison'
p6921
I6
sS'polish'
p6922
I1
sS'facual'
p6923
I1
sS'baldwin'
p6924
I1
sS'cloy'
p6925
I1
sS'halfway'
p6926
I5
sS'blow'
p6927
I15
sS'detach'
p6928
I1
sS'hint'
p6929
I1
sS'rose'
p6930
I4
sS'except'
p6931
I22
sS'notori'
p6932
I1
sS'pornograhpi'
p6933
I1
sS'kingdom'
p6934
I1
sS'supposit'
p6935
I1
sS'dismemb'
p6936
I1
sS'oevral'
p6937
I1
sS'understandable--just'
p6938
I1
sS'killl'
p6939
I1
sS'divorc'
p6940
I2
sS'saniti'
p6941
I1
sS'snore'
p6942
I3
sS'patrick'
p6943
I1
sS'substandard'
p6944
I1
sS'pleaaasssee'
p6945
I1
sS'rammstein'
p6946
I1
sS'badly-act'
p6947
I1
sS'electrocut'
p6948
I1
sS'freez'
p6949
I1
sS'slice'
p6950
I5
sS'mood'
p6951
I5
sS'farcic'
p6952
I1
sS'slick'
p6953
I1
sS'landscap'
p6954
I1
sS'moon'
p6955
I2
sS'moor'
p6956
I21
sS'hipster'
p6957
I1
sS'unbeliev'
p6958
I23
sS'complic'
p6959
I4
sS'freed'
p6960
I1
sS'garbag'
p6961
I60
sS'slaughter'
p6962
I2
sS'smashmouth'
p6963
I1
sS'on'
p6964
I97
sS'jeez'
p6965
I2
sS'ol'
p6966
I3
sS'ok'
p6967
I31
sS'oh'
p6968
I57
sS'of'
p6969
I381
sS'od'
p6970
I1
sS'stand'
p6971
I20
sS'oy'
p6972
I2
sS'decent'
p6973
I15
sS'doze'
p6974
I1
sS'brittani'
p6975
I1
sS'whitnail'
p6976
I1
sS'exept'
p6977
I1
sS'anti-climact'
p6978
I1
sS'gari'
p6979
I7
sS'garner'
p6980
I4
sS'spinal'
p6981
I2
sS'burton'
p6982
I4
sS'pullman'
p6983
I1
sS're-hash'
p6984
I1
sS'there'
p6985
I168
sS'racism'
p6986
I7
sS'strict'
p6987
I2
sS'racist'
p6988
I7
sS'timelin'
p6989
I1
sS'regard'
p6990
I5
sS'concess'
p6991
I1
sS'jus'
p6992
I2
sS'burrn'
p6993
I1
sS'untal'
p6994
I1
sS'reliz'
p6995
I1
sS'longer'
p6996
I8
sS'f-word'
p6997
I5
sS'sleazi'
p6998
I2
sS'lacklustr'
p6999
I1
sS'polanski'
p7000
I1
sS'grass'
p7001
I1
sS'connect'
p7002
I7
sS'chaplin'
p7003
I1
sS'toilet'
p7004
I7
sS'taylor'
p7005
I1
sS'cinema'
p7006
I14
sS'crockumentari'
p7007
I1
sS'frighten'
p7008
I7
sS'sensitil'
p7009
I1
sS'crude-fest'
p7010
I1
sS'intro'
p7011
I1
sS'dogvill'
p7012
I3
sS'russel'
p7013
I7
sS'gram'
p7014
I2
sS'abyss'
p7015
I2
sS'fiddler'
p7016
I1
sS'idiot'
p7017
I33
sS'compel'
p7018
I6
sS'rubber'
p7019
I4
sS'5'
p7020
I34
sS'heathen'
p7021
I1
sS'trash'
p7022
I54
sS'abysm'
p7023
I3
sS'symbol'
p7024
I2
sS'briefli'
p7025
I1
sS'kingsley'
p7026
I1
sS'brass'
p7027
I1
sS'shuga'
p7028
I1
sS'wife'
p7029
I19
sS'streisand'
p7030
I2
sS'invest'
p7031
I4
sS'uglier'
p7032
I1
sS'rutger'
p7033
I1
sS'cabbag'
p7034
I1
sS'shakesper'
p7035
I1
sS'potenti'
p7036
I8
sS'god-aw'
p7037
I5
sS'degrad'
p7038
I2
sS'trooper'
p7039
I1
sS'talentless'
p7040
I2
sS'all'
p7041
I292
sS'diss'
p7042
I1
sS'lace'
p7043
I4
sS'ali'
p7044
I1
sS'stlye'
p7045
I1
sS'ad-lib'
p7046
I1
sS'ala'
p7047
I2
sS'abil'
p7048
I12
sS'handwrit'
p7049
I1
sS'follow'
p7050
I28
sS'settlement'
p7051
I1
sS'hmmm'
p7052
I2
sS'program'
p7053
I1
sS'humili'
p7054
I1
sS're-titl'
p7055
I1
sS'irishgit'
p7056
I3
sS'liter'
p7057
I8
sS"they'll"
p7058
I2
sS'song'
p7059
I17
sS'far'
p7060
I51
sS'soni'
p7061
I1
sS'clevag'
p7062
I1
sS'fat'
p7063
I17
sS'ouch'
p7064
I6
sS'hypocrit'
p7065
I2
sS'fan'
p7066
I57
sS'failur'
p7067
I7
sS'ticket'
p7068
I12
sS'fad'
p7069
I1
sS'gethseman'
p7070
I1
sS'list'
p7071
I28
sS'trench'
p7072
I2
sS'lisa'
p7073
I1
sS'scientolog'
p7074
I2
sS'flick'
p7075
I53
sS'ten'
p7076
I9
sS'tea'
p7077
I1
sS'ted'
p7078
I3
sS'sophomor'
p7079
I2
sS'rate'
p7080
I90
sS'design'
p7081
I4
sS'bopper'
p7082
I3
sS'lesser-tal'
p7083
I1
sS'unpublish'
p7084
I1
sS'unsuit'
p7085
I1
sS'sue'
p7086
I1
sS'sub'
p7087
I2
sS'sun'
p7088
I1
sS'antartica'
p7089
I1
sS'cheesey'
p7090
I1
sS'brief'
p7091
I3
sS'guna'
p7092
I1
sS'cinemat'
p7093
I6
sS'suv'
p7094
I1
sS'version'
p7095
I31
sS'tickl'
p7096
I1
sS'deepli'
p7097
I2
sS'row'
p7098
I2
sS'sux'
p7099
I1
sS'christian'
p7100
I11
sS'tragedi'
p7101
I3
sS'behaviour'
p7102
I1
sS'goodby'
p7103
I2
sS'barbi'
p7104
I1
sS'naval'
p7105
I1
sS'high-school'
p7106
I2
sS'extremem'
p7107
I1
sS'verri'
p7108
I4
sS'magnitud'
p7109
I1
sS'hayworth'
p7110
I1
sS'eeeewwwww'
p7111
I1
sS'fartsi'
p7112
I1
sS'airwav'
p7113
I1
sS'voyag'
p7114
I1
sS'1900'
p7115
I1
sS'profanity-fil'
p7116
I2
sS'stripteas'
p7117
I2
sS'proceed'
p7118
I2
sS'"judg'
p7119
I1
sS'mulholland'
p7120
I1
sS'wield'
p7121
I1
sS'bizarr'
p7122
I4
sS'demo'
p7123
I1
sS'garnish'
p7124
I1
sS'rustin'
p7125
I1
sS'minor'
p7126
I13
sS'flat'
p7127
I12
sS'flaw'
p7128
I4
sS'headache-induc'
p7129
I1
sS'hoffman'
p7130
I2
sS'stutter'
p7131
I1
sS'mira'
p7132
I1
sS'alltim'
p7133
I1
sS'flag'
p7134
I4
sS'stick'
p7135
I29
sS'known'
p7136
I7
sS'mellow'
p7137
I1
sS'glad'
p7138
I16
sS'valuabl'
p7139
I3
sS'policemen'
p7140
I1
sS'caveat'
p7141
I1
sS'v'
p7142
I2
sS'motiv'
p7143
I5
sS'co-host'
p7144
I1
sS'orlean'
p7145
I1
sS'second-r'
p7146
I1
sS'guitar'
p7147
I1
sS'cours'
p7148
I32
sS'court'
p7149
I2
sS'goal'
p7150
I2
sS'divid'
p7151
I2
sS'rather'
p7152
I19
sS'satanist'
p7153
I1
sS'townshend'
p7154
I1
sS'scienc'
p7155
I8
sS'goat'
p7156
I1
sS'shouldnt'
p7157
I2
sS'okay'
p7158
I19
sS'cancun'
p7159
I1
sS'reflect'
p7160
I3
sS'wayan'
p7161
I3
sS'catalog'
p7162
I2
sS'numb'
p7163
I5
sS'obi-wan'
p7164
I1
sS'short'
p7165
I15
sS'caug'
p7166
I1
sS'susan'
p7167
I1
sS'cheesebal'
p7168
I1
sS'caus'
p7169
I22
sS'shore'
p7170
I1
sS'shade'
p7171
I1
sS'aforment'
p7172
I1
sS'essenci'
p7173
I1
sS'cartridg'
p7174
I1
sS"don't"
p7175
I223
sS'mission'
p7176
I4
sS'isnt'
p7177
I3
sS'scientist'
p7178
I4
sS'uninterst'
p7179
I1
sS'"it'
p7180
I1
sS'crabtre'
p7181
I1
sS'scof'
p7182
I1
sS'style'
p7183
I11
sS'pray'
p7184
I4
sS'border'
p7185
I3
sS'wilder'
p7186
I2
sS'resort'
p7187
I4
sS'dross'
p7188
I1
sS'stephen'
p7189
I3
sS'argentina'
p7190
I1
sS'sloppi'
p7191
I4
sS'might'
p7192
I11
sS'airtim'
p7193
I1
sS'return'
p7194
I7
sS'protaganist'
p7195
I1
sS'woulda'
p7196
I2
sS'somebodi'
p7197
I11
sS'receeed'
p7198
I1
sS'vaughn'
p7199
I1
sS'bollywood'
p7200
I1
sS'bigger'
p7201
I2
sS'braindead'
p7202
I1
sS'undertak'
p7203
I1
sS'ceas'
p7204
I1
sS'wwf-like'
p7205
I1
sS'weight'
p7206
I2
sS'needless'
p7207
I1
sS'stiller'
p7208
I7
sS'expect'
p7209
I57
sS'inflict'
p7210
I2
sS'flimsi'
p7211
I2
sS'alcohol'
p7212
I2
sS'join'
p7213
I5
sS'britsih'
p7214
I1
sS'prolli'
p7215
I1
sS'hill'
p7216
I6
sS'benjamin'
p7217
I1
sS'fiber'
p7218
I1
sS'advanc'
p7219
I3
sS'reallli'
p7220
I3
sS'friday'
p7221
I13
sS'differ'
p7222
I26
sS'speratt'
p7223
I1
sS'hepburn'
p7224
I1
sS'prison-guard-with-a-heart'
p7225
I1
sS'rikki'
p7226
I1
sS'teach'
p7227
I3
sS'stepbroth'
p7228
I1
sS'guest'
p7229
I1
sS'thrown'
p7230
I9
sS'thread'
p7231
I2
sS'perhap'
p7232
I16
sS'threat'
p7233
I2
sS'arlington'
p7234
I1
sS'fallen'
p7235
I4
sS'feed'
p7236
I2
sS'sympathi'
p7237
I4
sS'feel'
p7238
I79
sS'dink'
p7239
I1
sS'cose'
p7240
I1
sS'feet'
p7241
I3
sS'sailor'
p7242
I1
sS'plummet'
p7243
I1
sS'pretenti'
p7244
I13
sS'juilet'
p7245
I1
sS'bland'
p7246
I6
sS'plummer'
p7247
I1
sS'moan'
p7248
I2
sS'"'
p7249
I8
sS'script'
p7250
I60
sS'interact'
p7251
I3
sS'stori'
p7252
I156
sS'storm'
p7253
I7
sS'sware'
p7254
I1
sS'syrup'
p7255
I1
sS'store'
p7256
I9
sS'luckili'
p7257
I1
sS'watcher'
p7258
I1
sS'option'
p7259
I1
sS'pump'
p7260
I1
sS'filmic'
p7261
I1
sS'smile-worthi'
p7262
I1
sS'scoobi'
p7263
I2
sS'uncut'
p7264
I1
sS'king'
p7265
I13
sS'kind'
p7266
I45
sS'simplist'
p7267
I6
sS'5-star'
p7268
I1
sS'whenev'
p7269
I4
sS'remot'
p7270
I8
sS'remov'
p7271
I3
sS'dant'
p7272
I1
sS'knive'
p7273
I2
sS'riski'
p7274
I1
sS'architect'
p7275
I1
sS'stale'
p7276
I3
sS'communitit'
p7277
I1
sS'danc'
p7278
I22
sS'voice-ov'
p7279
I1
sS'budweis'
p7280
I1
sS'runteldat'
p7281
I1
sS'shrewd'
p7282
I1
sS'exerc'
p7283
I1
sS'gosford'
p7284
I2
sS'garfield'
p7285
I3
sS'expir'
p7286
I1
sS'gall'
p7287
I1
sS'dedic'
p7288
I1
sS'masacur'
p7289
I1
sS'wilson'
p7290
I2
sS'nighti'
p7291
I1
sS'maladjust'
p7292
I1
sS'buff'
p7293
I2
sS'gill'
p7294
I1
sS'wildlif'
p7295
I1
sS'clothespin'
p7296
I1
sS'reach'
p7297
I5
sS'77'
p7298
I1
sS'caddyshack'
p7299
I2
sS'75'
p7300
I3
sS'sandra'
p7301
I3
sS'amaz'
p7302
I25
sS'self-sacrific'
p7303
I1
sS'destruct'
p7304
I6
sS'part'
p7305
I23
sS'notch'
p7306
I1
sS'rogu'
p7307
I1
sS'stoner'
p7308
I3
sS'nobil'
p7309
I1
sS'juliann'
p7310
I2
sS'unessenti'
p7311
I1
sS"o'connel"
p7312
I1
sS'fans--h'
p7313
I1
sS'sterotyp'
p7314
I2
sS"martha--they'v"
p7315
I1
sS'frivol'
p7316
I1
sS'tilli'
p7317
I1
sS'betray'
p7318
I1
sS'hip'
p7319
I4
sS'his'
p7320
I101
sS'hit'
p7321
I16
sS'tommorow'
p7322
I1
sS'timmi'
p7323
I1
sS'andyru'
p7324
I1
sS'hig'
p7325
I1
sS'goody-goodi'
p7326
I1
sS'him'
p7327
I30
sS'brendan'
p7328
I1
sS'potray'
p7329
I1
sS'relentless'
p7330
I1
sS'wrote'
p7331
I12
sS'terrorisim'
p7332
I1
sS'ars'
p7333
I1
sS'art'
p7334
I15
sS'dump'
p7335
I6
sS'matix'
p7336
I1
sS'signifi'
p7337
I1
sS'are'
p7338
I100
sS'duma'
p7339
I1
sS'bark'
p7340
I1
sS'ark'
p7341
I1
sS'arm'
p7342
I1
sS'inconveni'
p7343
I1
sS'various'
p7344
I4
sS'bluri'
p7345
I1
sS'berserk'
p7346
I1
sS'watchin'
p7347
I1
sS'drowned-out'
p7348
I1
sS'bibl'
p7349
I5
sS'induc'
p7350
I3
sS'sole'
p7351
I2
sS'outfit'
p7352
I2
sS'succeed'
p7353
I2
sS'solv'
p7354
I1
sS'water'
p7355
I13
sS'c'
p7356
I7
sS'probbali'
p7357
I1
sS'oversea'
p7358
I2
sS'roman'
p7359
I6
sS'context'
p7360
I1
sS'motorcycl'
p7361
I2
sS'cynic'
p7362
I6
sS'distress'
p7363
I1
sS'baseketbal'
p7364
I1
sS'sweet'
p7365
I9
sS'theolog'
p7366
I1
sS'harbour'
p7367
I2
sS'psychiatr'
p7368
I1
sS'storybook'
p7369
I1
sS'peron'
p7370
I1
sS'weasel'
p7371
I2
sS'rave'
p7372
I1
sS'mistak'
p7373
I12
sS'glorfi'
p7374
I1
sS'simpler'
p7375
I1
sS'euro-trash'
p7376
I1
sS'dum'
p7377
I1
sS'duo'
p7378
I2
sS'overlook'
p7379
I3
sS'dud'
p7380
I1
sS'due'
p7381
I2
sS'whom'
p7382
I1
sS'pg'
p7383
I2
sS'dur'
p7384
I1
sS'whoa'
p7385
I1
sS'woke'
p7386
I2
sS'pm'
p7387
I1
sS'flight'
p7388
I2
sS'1950s'
p7389
I1
sS'1864'
p7390
I1
sS'demand'
p7391
I6
sS'instructor'
p7392
I1
sS'packag'
p7393
I1
sS'frozen'
p7394
I2
sS'ferel'
p7395
I1
sS'abov'
p7396
I10
sS'punchlin'
p7397
I1
sS'ecstasi'
p7398
I1
sS'trumped-up'
p7399
I1
sS'adulter'
p7400
I1
sS'demon'
p7401
I7
sS'rip'
p7402
I23
sS'quaid'
p7403
I1
sS'rig'
p7404
I1
sS'rid'
p7405
I2
sS'anguish'
p7406
I2
sS'apopear'
p7407
I1
sS'ria'
p7408
I2
sS'shirt'
p7409
I2
sS'minim'
p7410
I1
sS'allergi'
p7411
I1
sS'wierd'
p7412
I4
sS'shire'
p7413
I1
sS'9'
p7414
I12
sS'higher'
p7415
I5
sS'indebt'
p7416
I1
sS'huston'
p7417
I1
sS'tiresom'
p7418
I4
sS"would'v"
p7419
I6
sS'lower'
p7420
I7
sS'discourag'
p7421
I1
sS'guilti'
p7422
I4
sS'schindler'
p7423
I2
sS'computer-anim'
p7424
I1
sS'cheep'
p7425
I2
sS'cheer'
p7426
I6
sS'chees'
p7427
I4
sS'over-al'
p7428
I1
sS'anybodi'
p7429
I6
sS'edgi'
p7430
I1
sS'hemorrhoid'
p7431
I1
sS'relianc'
p7432
I1
sS'fall-back'
p7433
I1
sS'pebbl'
p7434
I1
sS'couch'
p7435
I2
sS'ma'
p7436
I2
sS'stimul'
p7437
I2
sS'humanoid'
p7438
I1
sS'burkettsvill'
p7439
I1
sS'complaint'
p7440
I3
sS'attila'
p7441
I1
sS'dis-tast'
p7442
I1
sS'joyless'
p7443
I1
sS'foreshadow'
p7444
I1
sS'lovin'
p7445
I1
sS'verion'
p7446
I1
sS'lowbrow'
p7447
I4
sS'mariah'
p7448
I5
sS'confront'
p7449
I4
sS'punni'
p7450
I1
sS'profanity-lac'
p7451
I2
sS'hallmark'
p7452
I1
sS'understood'
p7453
I3
sS'litter'
p7454
I1
sS'surpris'
p7455
I22
sS'patterson'
p7456
I1
sS'affili'
p7457
I1
sS'2102723'
p7458
I1
sS'amatur'
p7459
I1
sS'prop'
p7460
I2
sS'prom'
p7461
I2
sS'anni'
p7462
I1
sS're-mad'
p7463
I1
sS'"conan'
p7464
I1
sS'kelsey'
p7465
I1
sS'jumpi'
p7466
I1
sS'othello'
p7467
I1
sS'squeez'
p7468
I1
sS'andi'
p7469
I3
sS'raider'
p7470
I4
sS'hogwash'
p7471
I2
sS'candl'
p7472
I1
sS'complimentari'
p7473
I1
sS'virus'
p7474
I2
sS'lifeless'
p7475
I2
sS'masterpiec'
p7476
I8
sS'dialog'
p7477
I6
sS'damodar'
p7478
I1
sS'fantasia'
p7479
I1
sS'wanna'
p7480
I6
sS'underton'
p7481
I1
sS'miracl'
p7482
I2
sS'conquest'
p7483
I1
sS'70'
p7484
I5
sS'terren'
p7485
I1
sS'no-tal'
p7486
I2
sS'johni'
p7487
I1
sS'momma'
p7488
I1
sS'mommi'
p7489
I1
sS'artifici'
p7490
I1
sS'stench'
p7491
I2
sS'canal'
p7492
I1
sS'pedophil'
p7493
I1
sS'question'
p7494
I17
sS'swill'
p7495
I1
sS'fast'
p7496
I13
sS'redem'
p7497
I1
sS'zepplin'
p7498
I1
sS'styliz'
p7499
I1
sS'kristinand'
p7500
I1
sS'ingredi'
p7501
I1
sS'cloth'
p7502
I9
sS'crank'
p7503
I1
sS'delta'
p7504
I1
sS'junior'
p7505
I4
sS'4ever'
p7506
I2
sS'patriot'
p7507
I4
sS'consist'
p7508
I4
sS"hasn't"
p7509
I7
sS'highlight'
p7510
I6
sS'z'
p7511
I4
sS'x-ray'
p7512
I1
sS'derang'
p7513
I2
sS'freak'
p7514
I11
sS'rediculous'
p7515
I1
sS'grimac'
p7516
I1
sS'blasphem'
p7517
I2
sS'lemon'
p7518
I1
sS'peach'
p7519
I1
sS'contoversi'
p7520
I1
sS'riiiight'
p7521
I1
sS'nick'
p7522
I4
sS'disappointd'
p7523
I1
sS'dorkass'
p7524
I1
sS'nice'
p7525
I21
sS'jurass'
p7526
I2
sS'missil'
p7527
I1
sS'sc-fi'
p7528
I1
sS'ather'
p7529
I1
sS'happier'
p7530
I2
sS'vice'
p7531
I2
sS'ocular'
p7532
I1
sS'reiner'
p7533
I2
sS'wearisom'
p7534
I2
sS'non-jewish'
p7535
I1
sS'remin'
p7536
I1
sS'ashton'
p7537
I3
sS'nash'
p7538
I3
sS'buffalo'
p7539
I1
sS'pervert'
p7540
I7
sS'pervers'
p7541
I2
sS'edg'
p7542
I3
sS'atmosher'
p7543
I1
sS'steve'
p7544
I5
sS'gang'
p7545
I3
sS'superfici'
p7546
I2
sS'druggi'
p7547
I2
sS'unscriptu'
p7548
I1
sS'befal'
p7549
I1
sS'mathieson'
p7550
I1
sS'dragonheart'
p7551
I1
sS'leav'
p7552
I35
sS'goli'
p7553
I1
sS'mainstream'
p7554
I1
sS'spoon'
p7555
I2
sS'spook'
p7556
I1
sS'spoof'
p7557
I7
sS'spoog'
p7558
I1
sS'relev'
p7559
I1
sS'eeek'
p7560
I1
sS'disgrac'
p7561
I12
sS'godaw'
p7562
I5
sS'dealt'
p7563
I1
sS'mosnter'
p7564
I1
sS'pleas'
p7565
I42
sS"you'd"
p7566
I13
sS'battl'
p7567
I13
sS'sex-toy'
p7568
I1
sS'helicopt'
p7569
I2
sS"you'r"
p7570
I24
sS"you'v"
p7571
I16
sS'telephon'
p7572
I1
sS'acid'
p7573
I3
sS'folk'
p7574
I9
sS'superbabi'
p7575
I1
sS'compar'
p7576
I16
sS'outsmart'
p7577
I2
sS'jekyl'
p7578
I1
sS'washed-up'
p7579
I1
sS'slur'
p7580
I1
sS'19th'
p7581
I1
sS'krik'
p7582
I1
sS'impact'
p7583
I1
sS'chose'
p7584
I4
sS'sexi'
p7585
I6
sS'bulimia'
p7586
I1
sS'melodramat'
p7587
I3
sS'slater'
p7588
I2
sS'miser'
p7589
I12
sS'style-over-subst'
p7590
I1
sS'stark'
p7591
I1
sS'ass-crack'
p7592
I1
sS'detritus'
p7593
I1
sS'cleopatra'
p7594
I1
sS'risibl'
p7595
I1
sS'rufus'
p7596
I1
sS'simpleton'
p7597
I1
sS'typic'
p7598
I17
sS'z-z-z-z-z'
p7599
I1
sS'winkler'
p7600
I2
sS'bare'
p7601
I14
sS'overpass'
p7602
I1
sS'egypt'
p7603
I1
sS'appli'
p7604
I1
sS'approxim'
p7605
I1
sS'droopi'
p7606
I1
sS'aboard'
p7607
I2
sS'motor'
p7608
I1
sS'duck'
p7609
I1
sS'judeo-christian'
p7610
I1
sS'greg'
p7611
I1
sS'ape'
p7612
I4
sS'use'
p7613
I71
sS'from'
p7614
I41
sS'usa'
p7615
I3
sS'&'
p7616
I7
sS'frog'
p7617
I3
sS'modicum'
p7618
I2
sS'scariest'
p7619
I3
sS'sort'
p7620
I19
sS'clever'
p7621
I7
sS'whant'
p7622
I1
sS'impress'
p7623
I17
sS'columbo'
p7624
I1
sS'sore'
p7625
I2
sS'rabbit'
p7626
I1
sS'penis'
p7627
I2
sS'nickolson'
p7628
I1
sS'women'
p7629
I29
sS'annoy'
p7630
I55
sS'heard'
p7631
I35
sS'critic'
p7632
I21
sS'proof'
p7633
I6
sS'arlen'
p7634
I2
sS'tap'
p7635
I3
sS'patron'
p7636
I1
sS'tax'
p7637
I1
sS'tad'
p7638
I1
sS'villain'
p7639
I7
sS'hilton'
p7640
I1
sS'thirsti'
p7641
I1
sS'serial'
p7642
I1
sS'dummer'
p7643
I1
sS'rape'
p7644
I3
sS'sir'
p7645
I3
sS'sit'
p7646
I41
sS'sic'
p7647
I1
sS'instead'
p7648
I54
sS'panic'
p7649
I1
sS'sin'
p7650
I3
sS'insurrect'
p7651
I1
sS'tension'
p7652
I1
sS'attend'
p7653
I1
sS'over-when'
p7654
I1
sS'derict'
p7655
I1
sS'gurrila'
p7656
I1
sS'baaaaaaaaad'
p7657
I1
sS'wrist'
p7658
I4
sS'attent'
p7659
I9
sS'fratern'
p7660
I2
sS'villag'
p7661
I2
sS'light'
p7662
I13
sS'liason'
p7663
I2
sS'testicl'
p7664
I1
sS'martini'
p7665
I1
sS'wonka'
p7666
I1
sS'damsel'
p7667
I1
sS'elit'
p7668
I3
sS'waterworld'
p7669
I1
sS'tyrant'
p7670
I1
sS"emperor's-new-cloth"
p7671
I1
sS'badger'
p7672
I1
sS'glen'
p7673
I1
sS'superior'
p7674
I3
sS'voiceless'
p7675
I1
sS'nostalgia'
p7676
I1
sS'holiday'
p7677
I1
sS'freeman'
p7678
I3
sS'crash'
p7679
I6
sS"fr'instanc"
p7680
I1
sS'threesom'
p7681
I1
sS'immatur'
p7682
I2
sS'republican'
p7683
I4
sS'crass'
p7684
I3
sS'annoint'
p7685
I1
sS'billi'
p7686
I6
sS'profound'
p7687
I4
sS'edit'
p7688
I8
sS'nfl'
p7689
I1
sS'astrolog'
p7690
I1
sS'meat-head'
p7691
I1
sS'tv-pg'
p7692
I1
sS'arkansa'
p7693
I1
sS'vacation"'
p7694
I1
sS'tepid'
p7695
I1
sS'buick'
p7696
I1
sS'product'
p7697
I13
sS'skank'
p7698
I1
sS'89'
p7699
I1
sS'antithesi'
p7700
I1
sS'our'
p7701
I26
sS'80'
p7702
I10
sS'out'
p7703
I51
sS'tabloid'
p7704
I2
sS'sentiment'
p7705
I5
sS'cahrli'
p7706
I1
sS'categori'
p7707
I4
sS'vcr'
p7708
I1
sS'york'
p7709
I3
sS'age-old'
p7710
I1
sS'cri'
p7711
I20
sS'g'
p7712
I9
sS'latest'
p7713
I5
sS'neck'
p7714
I1
sS'corrector'
p7715
I1
sS'footag'
p7716
I2
sS'cinderella'
p7717
I1
sS'scattershot'
p7718
I1
sS'renni'
p7719
I1
sS'heartless'
p7720
I1
sS"doesn't"
p7721
I62
sS'unknown'
p7722
I3
sS'accent'
p7723
I12
sS'capac'
p7724
I1
sS'their'
p7725
I56
sS'morlock'
p7726
I1
sS'drool'
p7727
I1
sS'boil'
p7728
I2
sS'misunderstood'
p7729
I1
sS'shell'
p7730
I3
sS'r-rat'
p7731
I9
sS'juli'
p7732
I2
sS'shallow'
p7733
I15
sS'greenlight'
p7734
I1
sS'deniro'
p7735
I4
sS'regurgit'
p7736
I2
sS'richer'
p7737
I1
sS'tommi'
p7738
I2
sS'clip'
p7739
I1
sS'biggi'
p7740
I1
sS'explicit'
p7741
I3
sS'cohen'
p7742
I1
sS'crucifi'
p7743
I1
sS'coher'
p7744
I3
sS'cohes'
p7745
I3
sS'disjoint'
p7746
I3
sS'simplement'
p7747
I1
sS'movie-with'
p7748
I1
sS'catholic'
p7749
I1
sS'afraid'
p7750
I2
sS'rout'
p7751
I2
sS'rous'
p7752
I1
sS'satiat'
p7753
I1
sS'sixth-rat'
p7754
I1
sS'which'
p7755
I68
sS'aresn'
p7756
I1
sS'funnypart'
p7757
I1
sS'trivia'
p7758
I1
sS'divers'
p7759
I1
sS'lugar'
p7760
I1
sS'combat'
p7761
I2
sS'who'
p7762
I55
sS'whi'
p7763
I154
sS'nuts-o'
p7764
I1
sS'class'
p7765
I6
sS'lamer'
p7766
I1
sS'saddest'
p7767
I2
sS'pipe'
p7768
I2
sS'deni'
p7769
I1
sS'determin'
p7770
I2
sS'dorothi'
p7771
I1
sS'one-'
p7772
I1
sS'shlock-'
p7773
I1
sS'utter'
p7774
I26
sS'chicken'
p7775
I2
sS'darkest'
p7776
I1
sS'feat'
p7777
I1
sS'mckellan'
p7778
I1
sS'wuhl'
p7779
I1
sS'ha'
p7780
I10
sS'craptacualar'
p7781
I1
sS'eat'
p7782
I18
sS'conick'
p7783
I1
sS'f---'
p7784
I3
sS'piano'
p7785
I2
sS'local'
p7786
I10
sS'stinkorama'
p7787
I2
sS'spun'
p7788
I1
sS'cube'
p7789
I1
sS'contribut'
p7790
I1
sS'cuba'
p7791
I1
sS'dope'
p7792
I2
sS'godspel'
p7793
I1
sS'cutout'
p7794
I1
sS'mundan'
p7795
I1
sS'self-indulg'
p7796
I4
sS'ripley'
p7797
I3
sS'juror'
p7798
I1
sS'view'
p7799
I22
sS'expel'
p7800
I1
sS'credibl'
p7801
I3
sS'knowledg'
p7802
I3
sS'nightgown'
p7803
I1
sS'violet'
p7804
I1
sS'artsi'
p7805
I4
sS'oddment'
p7806
I1
sS'cole'
p7807
I1
sS'panti'
p7808
I3
sS'stupid-make-gross-jokes-in-a-futile-attempt-to-be-funni'
p7809
I1
sS'superb'
p7810
I1
sS'genius'
p7811
I4
sS'crude'
p7812
I22
sS'limit'
p7813
I6
sS'brosnan'
p7814
I5
sS'junki'
p7815
I1
sS'bought'
p7816
I5
sS'joy'
p7817
I2
sS'job'
p7818
I28
sS'entir'
p7819
I55
sS'joe'
p7820
I2
sS'spoil'
p7821
I4
sS'jog'
p7822
I1
sS'harlin'
p7823
I1
sS'stucco'
p7824
I1
sS'jon'
p7825
I5
sS'voight'
p7826
I1
sS'atleast'
p7827
I2
sS'committe'
p7828
I1
sS'rodney'
p7829
I1
sS'unappeal'
p7830
I1
sS'bride-to-b'
p7831
I1
sS'unclear'
p7832
I3
sS'wall'
p7833
I7
sS'arriv'
p7834
I1
sS'walk'
p7835
I52
sS'walt'
p7836
I3
sS'englund'
p7837
I1
sS'respect'
p7838
I24
sS'8-year'
p7839
I1
sS'hindu'
p7840
I1
sS'bbc'
p7841
I1
sS'compos'
p7842
I1
sS'compon'
p7843
I1
sS'besid'
p7844
I13
sS'decenc'
p7845
I1
sS'mike'
p7846
I12
sS'skinhead'
p7847
I1
sS'presenc'
p7848
I4
sS'hms'
p7849
I1
sS'osmet'
p7850
I2
sS'saner'
p7851
I1
sS'japenses'
p7852
I1
sS'presens'
p7853
I1
sS'present'
p7854
I12
sS'crappi'
p7855
I17
sS'erin'
p7856
I1
sS'wilt'
p7857
I1
sS'will'
p7858
I45
sS'wild'
p7859
I5
sS'wile'
p7860
I1
sS'plead'
p7861
I1
sS'observ'
p7862
I1
sS'bolero'
p7863
I1
sS'layer'
p7864
I2
sS'mutant'
p7865
I1
sS'ponderars'
p7866
I1
sS'apprehend'
p7867
I1
sS'fan-'
p7868
I1
sS'thus'
p7869
I1
sS'gothic'
p7870
I2
sS'snuck'
p7871
I4
sS'thug'
p7872
I1
sS'crawel'
p7873
I1
sS'primit'
p7874
I1
sS'whore'
p7875
I1
sS'misfortun'
p7876
I4
sS'cross'
p7877
I6
sS'member'
p7878
I7
sS'largest'
p7879
I1
sS'difficult'
p7880
I10
sS'slave'
p7881
I5
sS'promo'
p7882
I1
sS'ashle'
p7883
I1
sS'romeo'
p7884
I4
sS'beast'
p7885
I1
sS'student'
p7886
I7
sS'inpenetr'
p7887
I1
sS'whale'
p7888
I1
sS'gutter'
p7889
I1
sS'masochist'
p7890
I3
sS'english'
p7891
I6
sS'taliban'
p7892
I1
sS'loudmouth'
p7893
I2
sS'cameo'
p7894
I8
sS'camel'
p7895
I1
sS'undeserv'
p7896
I2
sS'obtain'
p7897
I1
sS"could'v"
p7898
I8
sS'heavili'
p7899
I3
sS'tcb'
p7900
I1
sS'becock'
p7901
I1
sS'taillight'
p7902
I1
sS'panther'
p7903
I2
sS'oscar-worthi'
p7904
I1
sS'bell'
p7905
I1
sS'smith'
p7906
I15
sS'discuss'
p7907
I1
sS'other'
p7908
I43
sS'mathau'
p7909
I1
sS'lord--whi'
p7910
I1
sS'smart'
p7911
I5
sS'angst-ridden'
p7912
I4
sS'rememb'
p7913
I33
sS'myth'
p7914
I1
sS'irrevers'
p7915
I1
sS'smother'
p7916
I1
sS'ever-gle'
p7917
I1
sS'know'
p7918
I137
sS'facial'
p7919
I2
sS'press'
p7920
I2
sS'chutzpah'
p7921
I1
sS"who'd"
p7922
I1
sS'un-funni'
p7923
I1
sS'glipst'
p7924
I1
sS'incred'
p7925
I24
sS'imbecil'
p7926
I3
sS'mother-in-law'
p7927
I1
sS'loser'
p7928
I10
sS'exceed'
p7929
I1
sS'overhyp'
p7930
I4
sS'scottish'
p7931
I1
sS'115'
p7932
I1
sS'shabbi'
p7933
I1
sS'leaf'
p7934
I1
sS'lead'
p7935
I21
sS'leak'
p7936
I1
sS'lean'
p7937
I1
sS'jeremi'
p7938
I4
sS'settl'
p7939
I2
sS'troup'
p7940
I1
sS'leader'
p7941
I4
sS'rip-off'
p7942
I9
sS'cleavag'
p7943
I1
sS'investig'
p7944
I2
sS'acronym'
p7945
I1
sS'slut'
p7946
I3
sS'pasti'
p7947
I1
sS'wesley'
p7948
I1
sS'ripper'
p7949
I1
sS'lame-o-rama'
p7950
I1
sS'unwatch'
p7951
I8
sS'rare'
p7952
I7
sS'perki'
p7953
I1
sS'sidekick'
p7954
I1
sS'injusto'
p7955
I1
sS'story-writ'
p7956
I1
sS'swear'
p7957
I8
sS'futurist'
p7958
I2
sS'sweat'
p7959
I2
sS'emperor'
p7960
I4
sS'disabl'
p7961
I1
sS'own'
p7962
I18
sS'preform'
p7963
I1
sS'owe'
p7964
I3
sS'clifton'
p7965
I1
sS'automat'
p7966
I4
sS'warranti'
p7967
I1
sS'brush'
p7968
I2
sS'ex-girlfriend'
p7969
I1
sS'pollak'
p7970
I1
sS'van'
p7971
I5
sS'platoon'
p7972
I1
sS'*'
p7973
I22
sS'appl'
p7974
I3
sS'replac'
p7975
I4
sS'vas'
p7976
I1
sS're-do'
p7977
I1
sS'contradictori'
p7978
I1
sS'baaaaad'
p7979
I1
sS'temt'
p7980
I1
sS'made'
p7981
I110
sS'puddl'
p7982
I1
sS'whether'
p7983
I1
sS'injur'
p7984
I1
sS'insipid'
p7985
I5
sS'distract'
p7986
I4
sS'record'
p7987
I11
sS'below'
p7988
I1
sS'belov'
p7989
I1
sS'arni'
p7990
I1
sS'cmon'
p7991
I1
sS'baaaaaddddd'
p7992
I1
sS'dubell'
p7993
I1
sS'meaningless'
p7994
I5
sS'lobotomi'
p7995
I1
sS'---'
p7996
I2
sS'jenni'
p7997
I1
sS'boot'
p7998
I7
sS'book'
p7999
I72
sS'boom'
p8000
I1
sS'sick'
p8001
I42
sS'boob'
p8002
I8
sS'junk'
p8003
I26
sS'kattan'
p8004
I1
sS'beleav'
p8005
I1
sS'margaret'
p8006
I1
sS'kinda'
p8007
I8
sS'sandler'
p8008
I28
sS'100k'
p8009
I1
sS'gap'
p8010
I1
sS'humbl'
p8011
I1
sS'cliff'
p8012
I1
sS'pringl'
p8013
I1
sS'experienc'
p8014
I1
sS'cat-and-mous'
p8015
I1
sS'space'
p8016
I29
sS'self-cent'
p8017
I3
sS'emerg'
p8018
I1
sS'richardson'
p8019
I1
sS'sci-'
p8020
I1
s.